(lp0
(VAl
p1
(lp2
F8.293225393495494
aF7.82322818046477
aF6.042235528936963
aF2.2110709334652614
aF12.95618238780773
aF4.322188213713283
aF6.985164347056136
aF0.5020977538975405
atp3
a(g1
(lp4
F7.980604115663165
aF7.523202680368423
aF5.79230115887632
aF2.086385876798142
aF12.116432207647941
aF3.92825136878183
aF6.582084550515383
aF0.42378816554666604
atp5
a(g1
(lp6
F8.107918887334145
aF7.644569461660944
aF5.890069802640512
aF2.130571704988766
aF12.441317129506215
aF4.070445707309292
aF6.749621851053819
aF0.45323878142503676
atp7
a(g1
(lp8
F8.361156593417283
aF7.887995089569956
aF6.0924066690663246
aF2.220149944797327
aF13.187283563072091
aF4.364629362243805
aF7.124335196908505
aF0.49669949554227216
atp9
a(g1
(lp10
F8.013076610660859
aF7.554708062079536
aF5.820482862938938
aF2.1082865744548713
aF12.412030902792127
aF4.00572357021804
aF6.771768843706567
aF0.43357170433240155
atp11
a(g1
(lp12
F8.127692839223903
aF7.666027780819813
aF5.91623863930912
aF2.1495080825764354
aF12.596107949025466
aF4.126277255550487
aF6.815198285660887
aF0.45301455814205027
atp13
a(g1
(lp14
F8.024767362386239
aF7.566079348342951
aF5.830142533846964
aF2.110980490573451
aF12.267249764337874
aF4.008165771138979
aF6.652150847991818
aF0.43969724520291403
atp15
a(g1
(lp16
F7.947352991674212
aF7.491364416455411
aF5.766806214364047
aF2.079640288879609
aF12.242044516604063
aF3.925073685871867
aF6.674485826715622
aF0.4083581550913572
atp17
a(g1
(lp18
F8.402538600940066
aF7.927114583947877
aF6.124748974956909
aF2.247629366172694
aF13.283739355126633
aF4.432147925055276
aF7.154250587291793
aF0.5099001946658651
atp19
a(g1
(lp20
F8.030809071393701
aF7.574385623015183
aF5.8453684579273695
aF2.126743883903117
aF12.331752382936804
aF4.050037736300764
aF6.678688214502768
aF0.4543643553309707
atp21
a(g1
(lp22
F7.928481043635825
aF7.471479397798955
aF5.7414319192464855
aF2.0395302115670138
aF11.94141529307352
aF3.7948492616463496
aF6.543218492137262
aF0.3985699540324626
atp23
a(g1
(lp24
F8.347594964623434
aF7.871935323241071
aF6.070098702803124
aF2.206967174589577
aF13.030475141312595
aF4.308933751536769
aF7.062011294057832
aF0.49972044324966935
atp25
a(g1
(lp26
F7.888061859678346
aF7.436525491101297
aF5.7274204634802794
aF2.061288146331013
aF12.01105741398422
aF3.847032890159327
aF6.544877944415395
aF0.3988555209901861
atp27
a(g1
(lp28
F8.034255712804324
aF7.573899074246758
aF5.830390515814036
aF2.0918523622033853
aF12.193811389881661
aF3.9563596596729895
aF6.631400888581752
aF0.43271240346631096
atp29
a(g1
(lp30
F8.064386319350318
aF7.607448408035992
aF5.876105100286124
aF2.148067889381732
aF12.415416647048547
aF4.097415971329688
aF6.717817530779113
aF0.4628333873798989
atp31
a(g1
(lp32
F8.31640292968293
aF7.848242323325696
aF6.07571008652597
aF2.2643366877371847
aF13.04133927331713
aF4.44601680755782
aF6.984764823761066
aF0.5396279120417564
atp33
a(g1
(lp34
F7.9737788822377125
aF7.516496733011094
aF5.785496211454115
aF2.0758481276007084
aF12.010744941471831
aF3.8934476494657613
aF6.521065678027075
aF0.4192259292372552
atp35
a(g1
(lp36
F8.06340927555274
aF7.600920977733045
aF5.851778254913461
aF2.114549172916656
aF12.187849252516509
aF4.006258876893207
aF6.600357137983467
aF0.4517989366229816
atp37
a(g1
(lp38
F8.3294769606385
aF7.85896574423444
aF6.076470681516828
aF2.2424929061157073
aF13.052124436939376
aF4.408068922650952
aF7.009544379314887
aF0.5243343593753893
atp39
a(g1
(lp40
F8.058980066473701
aF7.601308155952787
aF5.86550617426922
aF2.1222252849174104
aF12.493584609371846
aF4.041556263724643
aF6.786422064799287
aF0.4303688980645037
atp41
a(g1
(lp42
F8.13352003318237
aF7.667419327883535
aF5.904772648698741
aF2.140109482177145
aF12.35513839159344
aF4.079744969234309
aF6.691325554976538
aF0.4663011767627003
atp43
a(g1
(lp44
F8.03459424123832
aF7.571863465810602
aF5.820645448771035
aF2.0771474453201684
aF12.119811136857267
aF3.906227401494483
aF6.59582295858435
aF0.41692957892678895
atp45
a(g1
(lp46
F8.069418429888481
aF7.607703239309408
aF5.858475858971205
aF2.1050019167320886
aF12.387745896120306
aF3.999325423847706
aF6.734529726527199
aF0.424171402394633
atp47
a(g1
(lp48
F7.897593311226136
aF7.447886143072016
aF5.745442507081675
aF2.088130723275638
aF12.040938410559075
aF3.931137746385837
aF6.54207783346835
aF0.4373134207679047
atp49
a(g1
(lp50
F11.521015585481216
aF10.872164358410362
aF8.414533068534164
aF3.11934754457414
aF21.116720436231113
aF8.208424185321457
aF10.79679692132006
aF1.2098057712126045
atp51
a(g1
(lp52
F11.466491937238645
aF10.816315586516737
aF8.355175831023619
aF3.0707873672107286
aF20.796657132264045
aF7.991288301428433
aF10.677332047166027
aF1.1578537222609664
atp53
a(g1
(lp54
F11.35314887604057
aF10.711459847350683
aF8.280636523225839
aF3.04477580462879
aF20.461695776167122
aF7.8590887481844005
aF10.492753505972244
aF1.1318196943013366
atp55
a(g1
(lp56
F11.453716447529505
aF10.810085913512395
aF8.371305822916854
aF3.10758836335414
aF20.930514185097962
aF8.142604525276457
aF10.694351541476818
aF1.2004025546454933
atp57
a(g1
(lp58
F11.551365067360793
aF10.906324169343932
aF8.459153598364452
aF3.1548319796482747
aF21.43858468912176
aF8.368725223380482
aF10.944097486671957
aF1.2419037590003323
atp59
a(g1
(lp60
F11.468182285976672
aF10.823595861534544
aF8.379231534184454
aF3.096448588085495
aF21.018121136594107
aF8.104513400353046
aF10.773423164155773
aF1.1787192208698014
atp61
a(g1
(lp62
F11.443975460662873
aF10.800331277934571
aF8.360699363384427
aF3.0892343733566023
aF20.861454915240824
aF8.062594554485983
aF10.667336880843251
aF1.1688783474535658
atp63
a(g1
(lp64
F11.500361606299682
aF10.854980928538993
aF8.408715391449613
aF3.1246538285337393
aF21.134424776728128
aF8.22110580762749
aF10.805419221645948
aF1.2171411601325115
atp65
a(g1
(lp66
F11.520793627325427
aF10.874860778388154
aF8.42639882009151
aF3.136782298220624
aF21.273995429495685
aF8.277079008513237
aF10.894826787716982
aF1.2308699020365583
atp67
a(g1
(lp68
F11.478071814655234
aF10.834820824266048
aF8.39688890896346
aF3.1323109762427475
aF21.092254621964766
aF8.247207326761295
aF10.778346720056275
aF1.2360037308680891
atp69
a(g1
(lp70
F11.349147088645097
aF10.712344771832875
aF8.29804624563443
aF3.077243346949798
aF20.60856935085779
aF7.998028723195772
aF10.529245095699816
aF1.169586459594993
atp71
a(g1
(lp72
F11.482081492788813
aF10.834453004233188
aF8.380747146587105
aF3.0930210882566227
aF20.99251592728692
aF8.084144144435326
aF10.766904954150336
aF1.1741907199460309
atp73
a(g1
(lp74
F11.54194453467304
aF10.892229230616449
aF8.430102925666203
aF3.116217416365081
aF21.224851183844592
aF8.19033144503478
aF10.885543811769864
aF1.1962351372683533
atp75
a(g1
(lp76
F11.465122179131551
aF10.819817177892801
aF8.373990509955414
aF3.094772686324435
aF20.940927190651227
aF8.091680244070025
aF10.71757755685048
aF1.1777153875177533
atp77
a(g1
(lp78
F11.417417303222853
aF10.769987810317657
aF8.31917012607112
aF3.0594078904451774
aF20.628292572854843
aF7.9371427818080384
aF10.593289684391836
aF1.1560747078418907
atp79
a(g1
(lp80
F11.483260431145542
aF10.83297513566702
aF8.36935349978713
aF3.0678982791868896
aF20.88262780028316
aF7.985501786996596
aF10.73506850746077
aF1.1462874651056192
atp81
a(g1
(lp82
F11.37276619968624
aF10.733549015027704
aF8.31068216154932
aF3.078110001583675
aF20.659656195000263
aF7.992876042318724
aF10.584674840782345
aF1.1722108949087
atp83
a(g1
(lp84
F11.381063465440565
aF10.738037726240856
aF8.301095840439645
aF3.0489346360551703
aF20.553680996810584
aF7.887584890455157
aF10.53875261985689
aF1.1322333230874584
atp85
a(g1
(lp86
F11.558389132219123
aF10.90397437235426
aF8.423884026231029
aF3.086914913635672
aF21.185021944430915
aF8.08865014129398
aF10.907364574562736
aF1.1630163145076742
atp87
a(g1
(lp88
F11.515511990130914
aF10.871602967361168
aF8.43029436554571
aF3.1484910257989096
aF21.222762774381284
aF8.320943521969863
aF10.815506273441521
aF1.2435098487090828
atp89
a(g1
(lp90
F11.473577321023628
aF10.822074723627235
aF8.352819005745388
aF3.042117865132323
aF20.816023512414265
aF7.889265361704305
aF10.735660300884966
aF1.1182295861673093
atp91
a(g1
(lp92
F11.305481255429546
aF10.665183498539498
aF8.240561533933871
aF3.024737115055281
aF20.226147282917978
aF7.769792355917465
aF10.366336092510156
aF1.1154753591557283
atp93
a(g1
(lp94
F11.4785993456073
aF10.829852833095183
aF8.371800915560865
aF3.0778002140633838
aF20.930043229206213
aF8.026134048784522
aF10.751155190150197
aF1.1577779204763419
atp95
a(g1
(lp96
F11.485435991174338
aF10.843063305174809
aF8.407104492281837
aF3.1359852343302017
aF21.11429182148683
aF8.270877408670886
aF10.760598105584696
aF1.2331283668082824
atp97
a(g1
(lp98
F12.463898061463372
aF11.72578054910804
aF8.955245111869674
aF3.186501100289346
aF23.778858263138524
aF8.724250758313765
aF12.517876369144101
aF1.2182506358770695
atp99
a(g1
(lp100
F12.392524965228981
aF11.65415648058881
aF8.883195642401317
aF3.127405297055121
aF23.37166084420956
aF8.457957851603746
aF12.353625156047553
aF1.1535305260553805
atp101
a(g1
(lp102
F12.36988374724719
aF11.631848770153564
aF8.861412538187006
aF3.104810319860321
aF23.262966643206724
aF8.359443164810365
aF12.31729414225009
aF1.1208357495124397
atp103
a(g1
(lp104
F12.466219725872447
aF11.725149435094053
aF8.943686148735864
aF3.1611496536839745
aF23.72318897674097
aF8.61795653632215
aF12.530487125177654
aF1.1832731476335763
atp105
a(g1
(lp106
F12.555374357497314
aF11.811863543665654
aF9.018626074512575
aF3.198851809675178
aF24.167461080139717
aF8.810800005897612
aF12.763723047316242
aF1.2233807672170947
atp107
a(g1
(lp108
F12.447825430817867
aF11.708762555074177
aF8.93528264365172
aF3.1702988295035763
aF23.658607599431104
aF8.648861831241254
aF12.475156975828947
aF1.2030191532342156
atp109
a(g1
(lp110
F12.391089868530187
aF11.656448347272857
aF8.898709681117223
aF3.154441344589719
aF23.465292453944315
aF8.562370345294449
aF12.361057062213133
aF1.1792853262565766
atp111
a(g1
(lp112
F12.492977291684014
aF11.753757603359714
aF8.978765748429906
aF3.2006432283283757
aF23.915240400960403
aF8.79157621798115
aF12.587725112537733
aF1.2356007736913324
atp113
a(g1
(lp114
F12.48544442733661
aF11.74543317016031
aF8.965673421983599
aF3.171599224006324
aF23.86572343574694
aF8.67372225818215
aF12.600675012693678
aF1.190266923761373
atp115
a(g1
(lp116
F12.406669757390212
aF11.671582441159375
aF8.91272629992105
aF3.1729451391470076
aF23.523271325655447
aF8.647621974311248
aF12.372689859747188
aF1.2120420913147683
atp117
a(g1
(lp118
F12.377030677477443
aF11.64177506059852
aF8.880810062765232
aF3.1314093181778486
aF23.373562639219436
aF8.469439411451747
aF12.338967337526075
aF1.1511917416215647
atp119
a(g1
(lp120
F12.455319483924395
aF11.71466195300929
aF8.934087387838831
aF3.1485150747015767
aF23.682079351461496
aF8.563951462791811
aF12.522573088422531
aF1.1636908270556399
atp121
a(g1
(lp122
F12.431826978923423
aF11.692793117330705
aF8.920282393692476
aF3.1604003273414834
aF23.570567595799105
aF8.60421998889728
aF12.430430315865888
aF1.1912641523426635
atp123
a(g1
(lp124
F12.390611386151548
aF11.652638056084985
aF8.884708206146337
aF3.1420910691325923
aF23.360541421893622
aF8.512098710466008
aF12.324995408840445
aF1.1753336642033463
atp125
a(g1
(lp126
F12.41675277567599
aF11.677559461865277
aF8.905029231975577
aF3.1492009493985424
aF23.484084655221434
aF8.551577384603986
aF12.393006562428287
aF1.1812160602196469
atp127
a(g1
(lp128
F12.470629632755188
aF11.73031765311572
aF8.951334386882367
aF3.165831813353543
aF23.77734269661851
aF8.638186542033782
aF12.551464895313314
aF1.1822223217070755
atp129
a(g1
(lp130
F12.406569694570083
aF11.667478326306684
aF8.892763751561127
aF3.1260857374882396
aF23.437355499005125
aF8.459305170609461
aF12.40169897195737
aF1.1454549310788056
atp131
a(g1
(lp132
F12.402457960930846
aF11.67045503845075
aF8.921472626557936
aF3.180668078610849
aF23.595625742575447
aF8.68014785290798
aF12.387862140228568
aF1.2071566558368254
atp133
a(g1
(lp134
F12.471889687666577
aF11.7340665599812
aF8.963985967323575
aF3.187344731598725
aF23.84346108102722
aF8.73205702017636
aF12.553552969940693
aF1.210826640606262
atp135
a(g1
(lp136
F12.473827659729144
aF11.732305887000917
aF8.949050409808038
aF3.166793252685036
aF23.743436430941717
aF8.648364011056874
aF12.546198872317573
aF1.1985169637483972
atp137
a(g1
(lp138
F12.405685586177105
aF11.66513459295002
aF8.887588528297478
aF3.12463414232534
aF23.39666819598061
aF8.44534222316112
aF12.375807800723397
aF1.143325555210422
atp139
a(g1
(lp140
F12.377137516492684
aF11.640519626747883
aF8.877281845253755
aF3.1404986831135395
aF23.320799417779558
aF8.502830751041019
aF12.298918793384253
aF1.1748637047198816
atp141
a(g1
(lp142
F12.409847972376665
aF11.671857439301156
aF8.901889437947247
aF3.1454402098426675
aF23.474894083145905
aF8.537127459090685
aF12.3915185890222
aF1.1742554944264967
atp143
a(g1
(lp144
F12.428721669345487
aF11.689423203399278
aF8.916841113317755
aF3.160221877582392
aF23.54743629399447
aF8.599523166440246
aF12.414878496800378
aF1.1913854132297261
atp145
a(g1
(lp146
F12.464671402686069
aF11.725451267438979
aF8.94831454075489
aF3.1580900603146764
aF23.77377045940923
aF8.612161839107623
aF12.562015644862969
aF1.1735083491393137
atp147
a(g1
(lp148
F12.476178504385445
aF11.739810372250652
aF8.973222609048356
aF3.1958405135499626
aF23.904685567874598
aF8.772776072577736
aF12.575948358943988
aF1.2238158708103881
atp149
a(g1
(lp150
F12.442449965560172
aF11.70387852820146
aF8.930083555581234
aF3.1555572545201356
aF23.65766980610959
aF8.591295672847377
aF12.492274204336836
aF1.1773154291641619
atp151
a(g1
(lp152
F12.407023597191184
aF11.670083058838316
aF8.903920080193767
aF3.1482049043627103
aF23.4959609447365
aF8.547379374771415
aF12.395200967128693
aF1.1733948054926007
atp153
a(g1
(lp154
F12.463458345762666
aF11.72519067392819
aF8.953982873810595
aF3.187438995401398
aF23.766800485179278
aF8.72842124431314
aF12.512397228621063
aF1.223343785340596
atp155
a(g1
(lp156
F12.455021671535837
aF11.71736673365306
aF8.949487496002716
aF3.1878181207050913
aF23.741910148654814
aF8.724126952416107
aF12.487894869661414
aF1.2197512770785874
atp157
a(g1
(lp158
F12.427215889498793
aF11.686192581826436
aF8.90643140442943
aF3.135698613911126
aF23.506614599060647
aF8.500181029271525
aF12.430803822644881
aF1.1553340794134908
atp159
a(g1
(lp160
F12.4270803979275
aF11.685172750391676
aF8.901578798739715
aF3.131541550252359
aF23.469015214110364
aF8.484010894259145
aF12.425609533898463
aF1.1599502031588569
atp161
a(g1
(lp162
F12.461746228308481
aF11.726916275766715
aF8.967634629642772
aF3.210957297635047
aF23.84614449747452
aF8.825192130870269
aF12.510541279009802
aF1.2488689070702983
atp163
a(g1
(lp164
F12.403264386975955
aF11.668371232040725
aF8.909488419992655
aF3.164653865965608
aF23.51954471641149
aF8.612267127050865
aF12.382116858838243
aF1.1961746297079137
atp165
a(g1
(lp166
F12.408842006821116
aF11.67402308477463
aF8.915016545753351
aF3.164956435539618
aF23.55737729235485
aF8.616154583834025
aF12.40044268325954
aF1.1916281920448133
atp167
a(g1
(lp168
F12.471976044977607
aF11.730628432011933
aF8.948135304512032
aF3.1644336577278787
aF23.744436930630993
aF8.635294726855664
aF12.54240691014143
aF1.1906966485378092
atp169
a(g1
(lp170
F12.443552513736252
aF11.708457461749829
aF8.949552110067767
aF3.198995154536954
aF23.739708703149944
aF8.7670427873025
aF12.461055014468332
aF1.2349226797957296
atp171
a(g1
(lp172
F12.393176150241072
aF11.652327233688041
aF8.873442350784588
aF3.1115524409429254
aF23.317866471938036
aF8.390195758598976
aF12.348941755336156
aF1.1307184695505117
atp173
a(g1
(lp174
F12.381589304253067
aF11.644857250210558
aF8.87837885743433
aF3.1239319297716936
aF23.357772284948883
aF8.442546696461097
aF12.34677193249552
aF1.1453066664136509
atp175
a(g1
(lp176
F12.424229200414635
aF11.688418887444785
aF8.925138284771418
aF3.1652853532525764
aF23.62206908652739
aF8.624527937186645
aF12.44482936720224
aF1.190560106813083
atp177
a(g1
(lp178
F12.501147247958114
aF11.763738141134242
aF8.994335370130768
aF3.2214570745532862
aF23.99763509238016
aF8.884096126926439
aF12.606896543239166
aF1.2661369636917776
atp179
a(g1
(lp180
F12.48548495738167
aF11.74604645868329
aF8.969287737276643
aF3.186116456810814
aF23.87332283109811
aF8.731897123902641
aF12.58461009888809
aF1.2150295165708789
atp181
a(g1
(lp182
F12.411261578780584
aF11.676150691998505
aF8.917478371556282
aF3.175758608741097
aF23.555381826655392
aF8.657783205463948
aF12.384922828410003
aF1.2103863276537912
atp183
a(g1
(lp184
F12.430288917248628
aF11.693594227315835
aF8.929471680730309
aF3.1794691806406536
aF23.62180722385633
aF8.679572185987352
aF12.427125315891256
aF1.2151598307228035
atp185
a(g1
(lp186
F12.496372151698234
aF11.756736621677234
aF8.980210196800428
aF3.196974790893896
aF23.933354618976814
aF8.77623765921158
aF12.602573374541667
aF1.2230363813186922
atp187
a(g1
(lp188
F12.51832098322521
aF11.778091649969598
aF8.9986695888274
aF3.2059018193625035
aF24.040887541728456
aF8.82555944567361
aF12.659575529964705
aF1.2370199930488535
atp189
a(g1
(lp190
F12.474793918393935
aF11.73352641328202
aF8.951791218681981
aF3.1681050057159985
aF23.768870164391817
aF8.649187624116635
aF12.545587616378665
aF1.190072945132434
atp191
a(g1
(lp192
F12.455183425834996
aF11.716280152828988
aF8.941326599434689
aF3.166029167221015
aF23.710855485531575
aF8.638888267973607
aF12.518185472327659
aF1.1974350617002052
atp193
a(g1
(lp194
F11.463708633920666
aF10.816225574715398
aF8.362374332902544
aF3.0740086632091748
aF20.959651298488218
aF8.017150294717723
aF10.785351620916135
aF1.1527529494271151
atp195
a(g1
(lp196
F11.519900748286599
aF10.875253697237685
aF8.433050618240184
aF3.1564367436271703
aF21.257443523886188
aF8.359992192663109
aF10.825014586589415
aF1.2558579463430217
atp197
a(g1
(lp198
F11.551810924641616
aF10.90250892576664
aF8.441531597633695
aF3.13066714197048
aF21.282841470745606
aF8.262722698866483
aF10.893578290106571
aF1.2183998335341306
atp199
a(g1
(lp200
F11.421650782887635
aF10.774432797233217
aF8.322784071958836
aF3.0528435896762947
aF20.7326267755094
aF7.91332119290906
aF10.688090916229026
aF1.1409596249534637
atp201
a(g1
(lp202
F11.497374909851324
aF10.848789017535449
aF8.39094538900764
aF3.092198560960499
aF21.03859607209455
aF8.09084058071636
aF10.78698291350014
aF1.1693486512902884
atp203
a(g1
(lp204
F11.415980361713556
aF10.771737342642394
aF8.330056161546153
aF3.0666696843540486
aF20.762558574614143
aF7.966295378349486
aF10.673076632534233
aF1.154326299012863
atp205
a(g1
(lp206
F11.592785798659268
aF10.93973632355507
aF8.465011388858741
aF3.1315348673615406
aF21.371136194968372
aF8.280544713024122
aF10.94385881734548
aF1.2173396774759928
atp207
a(g1
(lp208
F11.490903142535215
aF10.846548961527908
aF8.402528117194198
aF3.115872830965597
aF21.07822843653217
aF8.19674029050272
aF10.756065961469977
aF1.2022343005058513
atp209
a(g1
(lp210
F11.3757319366362
aF10.729937066433932
aF8.283033765297386
aF3.0204961337728027
aF20.531351908834353
aF7.770699480303979
aF10.59356139734523
aF1.0957231367755804
atp211
a(g1
(lp212
F11.35036765652647
aF10.707835504646939
aF8.2736617255075
aF3.032890758449794
aF20.432819151778496
aF7.809726518736509
aF10.49863931905849
aF1.1162530608800136
atp213
a(g1
(lp214
F11.54897830008316
aF10.899274657033619
aF8.439426832142525
aF3.1451924301062473
aF21.22400243144884
aF8.315088141768095
aF10.838550283417025
aF1.250609348797598
atp215
a(g1
(lp216
F11.524143060200158
aF10.875613521991925
aF8.416768575632073
aF3.107423148393708
aF21.195758411926384
aF8.168181591783338
aF10.869771459744895
aF1.186733051814436
atp217
a(g1
(lp218
F11.572958617793226
aF10.920822985102902
aF8.448028541977287
aF3.111866693964695
aF21.314042532168273
aF8.199925663704185
aF10.929984073305967
aF1.1868244690230978
atp219
a(g1
(lp220
F11.394149940247427
aF10.75191608303758
aF8.317143103901445
aF3.064083514343941
aF20.64501307315523
aF7.94978916050469
aF10.579302198671112
aF1.1500755368435154
atp221
a(g1
(lp222
F11.381579743448434
aF10.737688839143136
aF8.297810596500543
aF3.0431083270590196
aF20.58190936397146
aF7.862050007050869
aF10.583709943769563
aF1.1254175814676495
atp223
a(g1
(lp224
F11.418979890214905
aF10.779136103663719
aF8.353821825694498
aF3.109037373555544
aF20.87944320389346
aF8.147506596655122
aF10.648174846370315
aF1.2036400140693506
atp225
a(g1
(lp226
F11.714574349545186
aF11.05735318635397
aF8.564700352023207
aF3.1784680262719567
aF21.975794761070585
aF8.509622628209224
aF11.274680461139997
aF1.2582962445279715
atp227
a(g1
(lp228
F11.622966371281587
aF10.971159372342418
aF8.500796463797467
aF3.1645878801283374
aF21.582317665925196
aF8.427496923564398
aF11.016160883513175
aF1.2517767842249747
atp229
a(g1
(lp230
F11.466862831043976
aF10.815374148873445
aF8.34621296170575
aF3.0311073779993403
aF20.835163669531255
aF7.845462702610457
aF10.759490356941688
aF1.090470464265041
atp231
a(g1
(lp232
F11.437328870774888
aF10.7913108702507
aF8.344378340164097
aF3.0794524001073933
aF20.91006757585084
aF8.019819317171487
aF10.76792538808119
aF1.169839479720998
atp233
a(g1
(lp234
F11.56563015219021
aF10.920255191906438
aF8.472734817356125
aF3.1676069667247586
aF21.51158726159826
aF8.42660372630994
aF10.967404005092696
aF1.2570217118076779
atp235
a(g1
(lp236
F11.616632760095333
aF10.965393107686237
aF8.494995055265079
aF3.1552307872595935
aF21.619386875417177
aF8.388190173189928
aF11.081271054998908
aF1.242326416435645
atp237
a(g1
(lp238
F11.408197750072647
aF10.76887182959424
aF8.345316134050133
aF3.1079244104303907
aF20.83181334115298
aF8.132805681477972
aF10.640077712695533
aF1.2094076025714013
atp239
a(g1
(lp240
F11.460689430548365
aF10.819812673197584
aF8.391450182559653
aF3.1412687961609596
aF21.059226015686775
aF8.280444155261494
aF10.731121728917914
aF1.2463959928552342
atp241
a(g1
(lp242
F8.205511673890713
aF7.734421841938482
aF5.951092384533444
aF2.139520372463485
aF12.708384040817263
aF4.1086984720137165
aF6.931572069903218
aF0.4480565088345416
atp243
a(g1
(lp244
F8.228975009449034
aF7.762500945511331
aF5.996424329084129
aF2.202590872496652
aF12.917552874625715
aF4.301668784611818
aF6.975040833614994
aF0.4994752193388757
atp245
a(g1
(lp246
F8.161131368987542
aF7.697407834271494
aF5.939863526672083
aF2.1578982295266553
aF12.800419593127554
aF4.169259578370939
aF6.957066108625836
aF0.45709485563116475
atp247
a(g1
(lp248
F8.411761752595218
aF7.933691143501869
aF6.122313053649041
aF2.2365566717206917
aF13.216702809758294
aF4.409321386828431
aF7.131365754195799
aF0.5143230685973663
atp249
a(g1
(lp250
F7.638441022073021
aF7.1962153670621225
aF5.525384847556846
aF1.965108718663702
aF11.295107663400287
aF3.5736442237178974
aF6.183591922583567
aF0.3609487347503908
atp251
a(g1
(lp252
F8.248229912763895
aF7.77365872255686
aF5.975103665868584
aF2.1242090798392073
aF12.71254327418509
aF4.079384301298687
aF6.923508047696232
aF0.4269340331679138
atp253
a(g1
(lp254
F8.1474621070136
aF7.683767289813267
aF5.92818222972353
aF2.163374412885404
aF12.647511329483079
aF4.170222951574416
aF6.865245564479828
aF0.4792442402870861
atp255
a(g1
(lp256
F7.9441157441785615
aF7.49118830041952
aF5.776228009311005
aF2.0925277898140227
aF12.12700684172112
aF3.955615770354528
aF6.594134200979934
aF0.4400225060268885
atp257
a(g1
(lp258
F8.04083690655805
aF7.581345697067428
aF5.843626026139279
aF2.1259708424813866
aF12.192971594796315
aF4.045906060688921
aF6.573190851771863
aF0.46001666853718975
atp259
a(g1
(lp260
F7.797914850834424
aF7.3432880844817765
aF5.625079938642614
aF1.9728412036166187
aF11.556793037545567
aF3.6018145117917113
aF6.353139883850086
aF0.3525696653744213
atp261
a(g1
(lp262
F8.497917786728589
aF8.018388133928655
aF6.20242283463985
aF2.3042388734408092
aF13.3733396177615
aF4.602516760132722
aF7.146156840516415
aF0.5760242492977211
atp263
a(g1
(lp264
F8.208727105676118
aF7.745327866333214
aF5.985746001971901
aF2.177691100900272
aF12.854449215017796
aF4.2234279096088665
aF6.962413533968779
aF0.47466004807510664
atp265
a(g1
(lp266
F8.006710703703758
aF7.549097789220231
aF5.8171178959130145
aF2.107948543740748
aF12.178271680616527
aF3.9894807768728717
aF6.605448792312844
aF0.4479761672706704
atp267
a(g1
(lp268
F7.932962570450192
aF7.477344215970766
aF5.753044230619741
aF2.0597327536262924
aF11.932998618128185
aF3.831684960924677
aF6.494999364541235
aF0.40189581614549436
atp269
a(g1
(lp270
F8.014348764812514
aF7.555981820773728
aF5.820833468514233
aF2.1003739873682394
aF12.243173358825896
aF3.965143885882239
aF6.65594882900788
aF0.42719813781009197
atp271
a(g1
(lp272
F8.276037090595862
aF7.806411297091135
aF6.028102277464498
aF2.209717176265681
aF12.864768789887316
aF4.315429735870611
aF6.9256997002060885
aF0.5099125520646343
atp273
a(g1
(lp274
F7.970129788241877
aF7.513404189808896
aF5.784365160179975
aF2.077629201992613
aF12.225271926660007
aF3.9259418110042583
aF6.666882154694856
aF0.41398769690358106
atp275
a(g1
(lp276
F8.289257961359533
aF7.824414347772251
aF6.063551752489661
aF2.2700005959471126
aF12.974208060181043
aF4.495544395315357
aF6.931151873862835
aF0.5759821213550473
atp277
a(g1
(lp278
F8.028917285747463
aF7.571632254498323
aF5.838475815625576
aF2.107194780307368
aF12.246783926331268
aF3.9843016744908244
aF6.642018711544257
aF0.43215621653571973
atp279
a(g1
(lp280
F7.9605603292445934
aF7.497607141706877
aF5.746847211375487
aF2.0197551589475817
aF11.947428799312764
aF3.7473498486712327
aF6.554345202696085
aF0.3727843717504764
atp281
a(g1
(lp282
F8.434382928392797
aF7.953865112137966
aF6.132840980919911
aF2.224542084158349
aF13.397215375442377
aF4.391190817849838
aF7.247017559783948
aF0.4784255827697895
atp283
a(g1
(lp284
F8.110363667337895
aF7.6491362437314345
aF5.90253860135684
aF2.151898109642214
aF12.712511863878097
aF4.145940652939107
aF6.9240914950633545
aF0.4622860184994719
atp285
a(g1
(lp286
F8.132273782114769
aF7.670715543890886
aF5.9218942937133185
aF2.159989519544937
aF12.569088103553069
aF4.152265638783382
aF6.807078844649049
aF0.4773427340283267
atp287
a(g1
(lp288
F7.843502569477914
aF7.3917056305327025
aF5.685448879016684
aF2.0525396060634553
aF11.844340136257749
aF3.8192996996768676
aF6.466874697897001
aF0.41497004587508846
atp289
a.