(lp0
(VAl
p1
(lp2
F8.115758648710548
aF7.657791660540522
aF5.921556903313935
aF2.174258394731832
aF12.593227432284769
aF4.19740903125871
aF6.783456194294146
aF0.48079016907816957
atp3
a(g1
(lp4
F8.286252885829544
aF7.8184159028076055
aF6.046689469021695
aF2.2360721251027806
aF12.969983051560899
aF4.390995129425114
aF6.95726696664527
aF0.5239635954776968
atp5
a(g1
(lp6
F7.859982698189507
aF7.408199525557112
aF5.698088440884154
aF2.0346738676681313
aF11.8945277154256
aF3.7893251112460153
aF6.4847569925728905
aF0.3851780539522178
atp7
a(g1
(lp8
F7.93019510457098
aF7.4724030161231285
aF5.741080792025761
aF2.0462910955497704
aF11.98218236129435
aF3.8203445801561258
aF6.547830243790845
aF0.39663952360429494
atp9
a(g1
(lp10
F8.05906816398158
aF7.596759663524833
aF5.847363338716779
aF2.1058203760098233
aF12.220885615693533
aF3.983725986955814
aF6.652599766032813
aF0.4498782062657124
atp11
a(g1
(lp12
F8.088463518862135
aF7.62642424169141
aF5.876393663332362
aF2.1200381525517815
aF12.512085681246868
aF4.051857653148566
aF6.818411927172438
aF0.44456992012907365
atp13
a(g1
(lp14
F7.999021540675878
aF7.538891512453789
aF5.797181412522453
aF2.0692079874995155
aF12.286829327885897
aF3.910716758725019
aF6.718802657664131
aF0.40381952075171473
atp15
a(g1
(lp16
F8.295662085156248
aF7.820061520421973
aF6.021044202393289
aF2.1842161373997238
aF12.719490133030721
aF4.223032718590293
aF6.861456444854971
aF0.48386252938153085
atp17
a(g1
(lp18
F7.829666378724068
aF7.376166187394134
aF5.66043082380706
aF1.9983824382892754
aF11.737509333778391
aF3.692838024007209
aF6.425607017650572
aF0.3638531530412067
atp19
a(g1
(lp20
F8.174796765471001
aF7.713434130691951
aF5.966349457627788
aF2.206008813221072
aF12.776422355631496
aF4.288023864672132
aF6.874343132749852
aF0.501264247395317
atp21
a(g1
(lp22
F8.21157091876357
aF7.748311856681827
aF5.993826584290497
aF2.217667016131631
aF12.888469174275944
aF4.328397536704964
aF6.960199675686285
aF0.5226313453736229
atp23
a(g1
(lp24
F8.052938434641616
aF7.590101893621849
aF5.837614050206481
aF2.08708035097171
aF12.270917496979958
aF3.9451842643749884
aF6.68158130860226
aF0.4151673860883104
atp25
a(g1
(lp26
F8.051468825163377
aF7.587553377716538
aF5.8313761667762245
aF2.0784199161921366
aF12.179405021678019
aF3.9287804091053067
aF6.633828635847152
aF0.42453771601835244
atp27
a(g1
(lp28
F8.271635297792223
aF7.802433657248973
aF6.022990529612963
aF2.1873867244926486
aF13.066023508335572
aF4.2536099533423695
aF7.113497227349165
aF0.4739096001020289
atp29
a(g1
(lp30
F8.510661453032196
aF8.03217069814544
aF6.219432523355818
aF2.3165566289211537
aF13.5675356751638
aF4.651943287013825
aF7.277206850756324
aF0.586341983615691
atp31
a(g1
(lp32
F8.004379381576461
aF7.542677544423868
aF5.795841564922073
aF2.064912768267302
aF12.110740465234903
aF3.8724048168947096
aF6.606311685386279
aF0.40391722974030125
atp33
a(g1
(lp34
F8.02925022897626
aF7.5703224289404725
aF5.833427627246548
aF2.112725201848416
aF12.242935725030412
aF3.9981792851463966
aF6.64379340557274
aF0.44334375767898976
atp35
a(g1
(lp36
F8.282859972147513
aF7.815029315692632
aF6.04355467061542
aF2.2369818401463912
aF13.14825461285735
aF4.395223788010981
aF7.062703667693747
aF0.4969139555590156
atp37
a(g1
(lp38
F8.019351082297975
aF7.5612011113814726
aF5.82546726423731
aF2.0985481974375184
aF12.487645091505007
aF3.9918321150575817
aF6.83011471123012
aF0.4203077709326398
atp39
a(g1
(lp40
F7.912697620387098
aF7.462674009124249
aF5.758815597437079
aF2.0957949963833142
aF12.002951173983503
aF3.9424249487378216
aF6.491071635871906
aF0.43548284962757566
atp41
a(g1
(lp42
F8.103123726851946
aF7.63959740216001
aF5.883975885393745
aF2.1171377153352116
aF12.45346996484008
aF4.031659554753508
aF6.777267233855344
aF0.4364680342298925
atp43
a(g1
(lp44
F8.194491961850051
aF7.720505513954169
aF5.927933293732327
aF2.112107328319759
aF12.6117990564258
aF4.027336891131404
aF6.915588428177842
aF0.43413626036438685
atp45
a(g1
(lp46
F8.260372093207316
aF7.786295510657766
aF5.990315727373331
aF2.1415441263073727
aF12.731281613501906
aF4.12811705487548
aF6.927480825192706
aF0.45247528157169986
atp47
a(g1
(lp48
F8.066032770293617
aF7.609054756737347
aF5.8791940293876594
aF2.1629196610809323
aF12.324238590847981
aF4.150187443568187
aF6.630808314659098
aF0.4974572793142194
atp49
a(g1
(lp50
F11.595700882576065
aF10.9438403521345
aF8.4726462323397
aF3.13886129470188
aF21.46008738301799
aF8.315098072443703
aF10.988560382317468
aF1.222223389885951
atp51
a(g1
(lp52
F11.594143898741605
aF10.94116866354779
aF8.4683404044644
aF3.1445468424555645
aF21.40722507261761
aF8.327226663604884
aF10.955516977686507
aF1.2373462838808917
atp53
a(g1
(lp54
F11.470474802546697
aF10.821825113737196
aF8.363856454391238
aF3.0643263005787396
aF20.94559961712312
aF7.974913329646229
aF10.780351596706794
aF1.1320905606157032
atp55
a(g1
(lp56
F11.51791451844325
aF10.867341656994496
aF8.401093764241566
aF3.080360076715034
aF21.121401878572
aF8.061195411351173
aF10.857603315630955
aF1.1487484037942872
atp57
a(g1
(lp58
F11.428024264282787
aF10.779604310667283
aF8.322400559205063
aF3.034665207975508
aF20.737525881066322
aF7.844990342532962
aF10.709770726255343
aF1.1063000303406432
atp59
a(g1
(lp60
F11.525171829325371
aF10.878079351560562
aF8.42542673298378
aF3.1289963567319012
aF21.23667184437136
aF8.255175263547642
aF10.858280464939705
aF1.2167743964345064
atp61
a(g1
(lp62
F11.465788058994397
aF10.82439027419796
aF8.391465289143898
aF3.125340090258613
aF21.133861933608635
aF8.226983035181226
aF10.807957126336563
aF1.2209382981707677
atp63
a(g1
(lp64
F11.47900844442588
aF10.830870680357863
aF8.377202994521742
aF3.102102655934683
aF20.984184817294402
aF8.12185131368377
aF10.761297377337465
aF1.1979979563073266
atp65
a(g1
(lp66
F11.3926534128373
aF10.747148606203654
aF8.302780063112234
aF3.046911268676577
aF20.558540259150018
aF7.87636066199769
aF10.55822700598427
aF1.1358807997865694
atp67
a(g1
(lp68
F11.559749164229059
aF10.908163427015488
aF8.438947648233695
aF3.1197010338916837
aF21.29681813495247
aF8.226035786112044
aF10.924880193913088
aF1.2058565946605353
atp69
a(g1
(lp70
F11.605873871272477
aF10.956397832832684
aF8.492709060359697
aF3.1616346066378926
aF21.610944889711778
aF8.41891418309186
aF11.050730333905364
aF1.2516931575891797
atp71
a(g1
(lp72
F11.503457781748713
aF10.85642881621961
aF8.403648295154843
aF3.107997575404911
aF21.126134368282276
aF8.164078226634745
aF10.826155636505657
aF1.1920900102598002
atp73
a(g1
(lp74
F11.4144531532932
aF10.768635328606363
aF8.322411474099978
aF3.0581600755096985
aF20.680545218928525
aF7.924723502455724
aF10.618946784577657
aF1.1404573189359029
atp75
a(g1
(lp76
F11.48865928463172
aF10.840857940351437
aF8.386251566979826
aF3.096081748239955
aF21.027099812632176
aF8.106398005314416
aF10.783265619937827
aF1.1796209501957664
atp77
a(g1
(lp78
F11.600624336579488
aF10.950035496842757
aF8.48297366136449
aF3.1529141231705053
aF21.53051814272123
aF8.37450247431017
aF11.024459564082022
aF1.241661055489439
atp79
a(g1
(lp80
F11.540275151303685
aF10.891469114940454
aF8.432783311085084
aF3.1287551896995973
aF21.248111721910664
aF8.25449385210547
aF10.876548993149328
aF1.219257990157974
atp81
a(g1
(lp82
F11.432419003085107
aF10.78297700750448
aF8.323012869728416
aF3.0331717748463336
aF20.648614196053984
aF7.831956345816499
aF10.631914596450061
aF1.1015507349174327
atp83
a(g1
(lp84
F11.436552605110089
aF10.796289029980423
aF8.370110439678731
aF3.1212522112844656
aF20.950677520539056
aF8.18801352190065
aF10.67909268129266
aF1.212020125188571
atp85
a(g1
(lp86
F11.605509952079293
aF10.958381798158314
aF8.504191347517652
aF3.1931905408701997
aF21.672474437503936
aF8.53456806353464
aF11.054136389666127
aF1.2963762800747032
atp87
a(g1
(lp88
F11.523698301390485
aF10.875134731914493
aF8.415068882745741
aF3.1010619929093126
aF21.2141358970948
aF8.13989802185881
aF10.90407297806996
aF1.1784990104985755
atp89
a(g1
(lp90
F11.421615599775043
aF10.777770752342956
aF8.337841696613054
aF3.0752091611291177
aF20.759918236470252
aF8.004700554513771
aF10.631775786764589
aF1.1597260357887658
atp91
a(g1
(lp92
F11.427600173953534
aF10.782649061204749
aF8.338179037585677
aF3.0685313163490657
aF20.86629201327546
aF7.970054853897885
aF10.753896734999108
aF1.148609141175652
atp93
a(g1
(lp94
F11.528764810340137
aF10.882170640212216
aF8.434513060634558
aF3.1607197943457055
aF21.31378212243835
aF8.371817078210661
aF10.881672484518214
aF1.2658275643029309
atp95
a(g1
(lp96
F11.615965916393186
aF10.96084644830349
aF8.47891892537158
aF3.132859858672021
aF21.48972451561205
aF8.294857031953077
aF11.021224526656663
aF1.212426545492845
atp97
a(g1
(lp98
F12.532408986863189
aF11.79204361219575
aF9.01373130678205
aF3.2301125176825516
aF24.107232311308636
aF8.925457573875306
aF12.668475806670166
aF1.274136499263546
atp99
a(g1
(lp100
F12.531285454569716
aF11.788051008868308
aF8.997080351258239
aF3.1835123932817884
aF24.05026979337312
aF8.736127406895687
aF12.707696680734147
aF1.2002496374520601
atp101
a(g1
(lp102
F12.506501415625348
aF11.764720882854707
aF8.98041188658622
aF3.188906186979442
aF23.927448458090907
aF8.749323281992615
aF12.622641215922078
aF1.2213495187351193
atp103
a(g1
(lp104
F12.535153661366873
aF11.792191286336148
aF9.004877922266884
aF3.2147973320090806
aF24.046706822467563
aF8.863632276481939
aF12.665251363295514
aF1.258423383829784
atp105
a(g1
(lp106
F12.481974960598505
aF11.736094515381307
aF8.936763384690925
aF3.1261341223857495
aF23.707991679316986
aF8.481214695864882
aF12.587427124555004
aF1.1325564964916144
atp107
a(g1
(lp108
F12.55384144475552
aF11.81363007368085
aF9.034082038121001
aF3.240129205371558
aF24.228412163364766
aF8.982021792984963
aF12.730070827838379
aF1.2853799715362837
atp109
a(g1
(lp110
F12.535515971367175
aF11.794313758355386
aF9.012265600286845
aF3.218831741400918
aF24.10596339747908
aF8.882560652509317
aF12.684985905191828
aF1.2552551793780258
atp111
a(g1
(lp112
F12.449488417297989
aF11.708337926757254
aF8.927683555834752
aF3.149825551882574
aF23.632877833248276
aF8.567244971790087
aF12.492613321433353
aF1.1720334946469504
atp113
a(g1
(lp114
F12.38650369736329
aF11.653538990372422
aF8.903715219460775
aF3.1821581085517803
aF23.461723504254298
aF8.678772505176491
aF12.311595844108812
aF1.2278353844070187
atp115
a(g1
(lp116
F12.534648967207476
aF11.792761065056084
aF9.008273208736723
aF3.209631094479196
aF24.092696232304956
aF8.843864410755268
aF12.688125954777691
aF1.2379520720189505
atp117
a(g1
(lp118
F12.552754768419113
aF11.80887575227834
aF9.015157195565198
aF3.193994829712061
aF24.153586070662072
aF8.786590299880773
aF12.759004091823114
aF1.211276296094341
atp119
a(g1
(lp120
F12.419469794289382
aF11.682227020069064
aF8.915069621020354
aF3.1534025353309905
aF23.562703775680895
aF8.573260691105842
aF12.428167082332386
aF1.175275433266213
atp121
a(g1
(lp122
F12.340820166648827
aF11.604940628796697
aF8.845728344978959
aF3.124128702993407
aF23.136347290201428
aF8.421764802143194
aF12.204092648363456
aF1.158815738258397
atp123
a(g1
(lp124
F12.527950421777646
aF11.780804380686014
aF8.974448826677053
aF3.137595050055991
aF23.942329400698995
aF8.548607968980495
aF12.725794854170895
aF1.1389610530027203
atp125
a(g1
(lp126
F12.552227072606211
aF11.807101749251254
aF9.011425700306132
aF3.201884760637024
aF24.10379515028717
aF8.81377162411804
aF12.71761744210224
aF1.229594736178777
atp127
a(g1
(lp128
F12.391599823032541
aF11.65591293404574
aF8.894540782364983
aF3.1468738129621068
aF23.443319023904618
aF8.53559952422968
aF12.360991520924854
aF1.172322132870678
atp129
a(g1
(lp130
F12.439891276735946
aF11.696882155978416
aF8.908615695971339
aF3.1224889087915577
aF23.533442183514893
aF8.450079310906862
aF12.479744128063043
aF1.1373455382404722
atp131
a(g1
(lp132
F12.54648854133585
aF11.807371874935175
aF9.03092396058749
aF3.236186738349519
aF24.230386748359983
aF8.957848713804133
aF12.735824411892194
aF1.2730068408018773
atp133
a(g1
(lp134
F12.60909449355776
aF11.864521757749463
aF9.068545810401552
aF3.2436441809403247
aF24.441720154742466
aF9.01218500596754
aF12.875648908861873
aF1.2813317314332326
atp135
a(g1
(lp136
F12.456174948056082
aF11.716117197527094
aF8.939113984231229
aF3.16547783695662
aF23.69428473539703
aF8.628954691041573
aF12.500416718261674
aF1.1880077837051601
atp137
a(g1
(lp138
F12.539258040133296
aF11.794676850415136
aF9.000672149188711
aF3.1949757475166685
aF24.046345682291683
aF8.781014593233829
aF12.695178865022642
aF1.2228292046421727
atp139
a(g1
(lp140
F12.554101296551499
aF11.80700899966711
aF9.001401690743064
aF3.1633655423771714
aF24.092971616215074
aF8.658400439782092
aF12.781137783478018
aF1.169929449165037
atp141
a(g1
(lp142
F12.540163006834009
aF11.798043029254213
aF9.011670403303318
aF3.205132030011773
aF24.124931757074965
aF8.82811175463641
aF12.71674049920301
aF1.2297800103954442
atp143
a(g1
(lp144
F12.54965630213048
aF11.80755733452862
aF9.020717256153892
aF3.2149237097954773
aF24.16524497410809
aF8.87439944646314
aF12.733197674379712
aF1.2490479176329543
atp145
a(g1
(lp146
F12.612414411420486
aF11.869363238959453
aF9.07818854696884
aF3.253608398731449
aF24.50085397208144
aF9.061160504026383
aF12.883881368179637
aF1.290688061487606
atp147
a(g1
(lp148
F12.557012839291135
aF11.814535888210193
aF9.027030769368732
aF3.2183702198873205
aF24.206056955400875
aF8.888859642296207
aF12.749554943361005
aF1.2466482767820632
atp149
a(g1
(lp150
F12.551374642360646
aF11.806147712831644
aF9.012301524089379
aF3.2116508446813574
aF24.09410156636757
aF8.850497598054082
aF12.694616386217835
aF1.244282234979855
atp151
a(g1
(lp152
F12.609378912690524
aF11.860405479992197
aF9.048130093572814
aF3.1980066502001003
aF24.34348293293337
aF8.824419129042013
aF12.89185763402158
aF1.216282737102157
atp153
a(g1
(lp154
F12.531402539834296
aF11.78925857302598
aF9.00355515706224
aF3.2031940735429605
aF24.07173883920886
aF8.816052482168367
aF12.68994729392407
aF1.2294491293953849
atp155
a(g1
(lp156
F12.523837120997905
aF11.7791233839195
aF8.983131754280915
aF3.1684771974550254
aF23.964322817989128
aF8.674426232055852
aF12.682064039332845
aF1.1874027209518987
atp157
a(g1
(lp158
F12.553721605559115
aF11.807698280778126
aF9.00660456339065
aF3.1792266821904116
aF24.102732111460146
aF8.728298683564267
aF12.755255056522225
aF1.1948905055235939
atp159
a(g1
(lp160
F12.554396456245358
aF11.812545009453373
aF9.024136639969804
aF3.2036931380571505
aF24.211208111280904
aF8.83524692477011
aF12.781391714547546
aF1.2262490979945244
atp161
a(g1
(lp162
F12.42407227093365
aF11.68377128872456
aF8.906831206748606
aF3.14537957654978
aF23.497490914494193
aF8.536972964679878
aF12.415497358558717
aF1.1745675524824406
atp163
a(g1
(lp164
F12.460540842334627
aF11.725371976931337
aF8.965111881625685
aF3.210462057171691
aF23.82752798968919
aF8.827292857040359
aF12.507106517542553
aF1.2566850864382633
atp165
a(g1
(lp166
F12.563977759141691
aF11.817707811846429
aF9.018998174117863
aF3.208739425224787
aF24.135771716754864
aF8.845020075654162
aF12.732529755964041
aF1.2426801056031738
atp167
a(g1
(lp168
F12.535296320635258
aF11.789840183891123
aF8.990702910746625
aF3.1691444968828306
aF24.01107076998662
aF8.678969000043741
aF12.719115138291519
aF1.186238785444558
atp169
a(g1
(lp170
F12.369205680032731
aF11.628197047594707
aF8.847670583103461
aF3.08490224645844
aF23.18355595401702
aF8.280154539392345
aF12.314965429713144
aF1.1041826478492403
atp171
a(g1
(lp172
F12.423990160400823
aF11.6857667509077
aF8.913477994712512
aF3.1411833497098294
aF23.567365086548563
aF8.52725340525588
aF12.457468043689493
aF1.1591798488885068
atp173
a(g1
(lp174
F12.52691948712615
aF11.782567016351091
aF8.988951251799529
aF3.1788644509648747
aF23.99187410530298
aF8.712823621698416
aF12.683578815762175
aF1.1998352648127335
atp175
a(g1
(lp176
F12.457008453956716
aF11.723400853140083
aF8.969344303030761
aF3.2232724855969463
aF23.850617664789816
aF8.873510878823113
aF12.49372389808363
aF1.2684274677489056
atp177
a(g1
(lp178
F12.38436507923202
aF11.645168874228666
aF8.872327447885901
aF3.1197833926580647
aF23.310375311110125
aF8.419023216117546
aF12.330895825461422
aF1.1422899623582055
atp179
a(g1
(lp180
F12.436361708194374
aF11.700788991614472
aF8.94076187024064
aF3.194250276627326
aF23.686026200132165
aF8.744269819781179
aF12.440063114080283
aF1.232818309051816
atp181
a(g1
(lp182
F12.548035608667348
aF11.803318915119887
aF9.007405901735215
aF3.194740426765958
aF24.08807347550063
aF8.787961401417888
aF12.729411636463265
aF1.2260570281652403
atp183
a(g1
(lp184
F12.494201531307196
aF11.755418169545083
aF8.980888467281588
aF3.1941974805388362
aF23.946426088376754
aF8.76776618976214
aF12.613486017144982
aF1.2181366525523765
atp185
a(g1
(lp186
F12.508795646831057
aF11.768218561687462
aF8.987250181662068
aF3.1952304927513357
aF23.974494096912505
aF8.778022128781933
aF12.639272883714296
aF1.2254160715870257
atp187
a(g1
(lp188
F12.531043897897238
aF11.790556532147404
aF9.009221791479728
aF3.2077002212817827
aF24.112230964127612
aF8.838178530191549
aF12.702651360342497
aF1.234072596925425
atp189
a(g1
(lp190
F12.551720568577336
aF11.813231755178867
aF9.037109257477763
aF3.231878193204474
aF24.27929161227832
aF8.952820554395426
aF12.766834851680148
aF1.2637755662047063
atp191
a(g1
(lp192
F12.541780349762877
aF11.801552973514742
aF9.02109301007033
aF3.2165112422660274
aF24.181366667003722
aF8.877662913192752
aF12.724852420314292
aF1.2391547388352049
atp193
a(g1
(lp194
F11.649119428154751
aF10.99144799255467
aF8.499563569647579
aF3.130789416975099
aF21.6317774061706
aF8.293156381367002
aF11.125467187698362
aF1.2012895299382873
atp195
a(g1
(lp196
F11.657020546375206
aF10.997847081959636
aF8.50082726872919
aF3.1268952279644995
aF21.59760236597651
aF8.278070772908
aF11.109229061704376
aF1.200094205981805
atp197
a(g1
(lp198
F11.631472054206219
aF10.976813561920563
aF8.495996466654969
aF3.1464874697615155
aF21.609942671244546
aF8.352865304600263
aF11.091552174062338
aF1.228631349910293
atp199
a(g1
(lp200
F11.667770294464743
aF11.01543918846425
aF8.541587773129146
aF3.1882924851911767
aF21.851071012879927
aF8.540289333641098
aF11.16360235699771
aF1.2764870383300622
atp201
a(g1
(lp202
F11.461702641046447
aF10.813818767851332
aF8.35899905444077
aF3.0704268994465536
aF20.926682749343957
aF7.994973893122599
aF10.767635180100529
aF1.1475870358870193
atp203
a(g1
(lp204
F11.510544651224425
aF10.862765635746062
aF8.406463313553086
aF3.1052823838171277
aF21.133527881245296
aF8.155720060877048
aF10.838061221091687
aF1.1901341831470131
atp205
a(g1
(lp206
F11.53593829340427
aF10.885151124519531
aF8.421009059191402
aF3.1164013329050477
aF21.261688119793448
aF8.196675222149345
aF10.937615820605549
aF1.2038486960282249
atp207
a(g1
(lp208
F11.432111448537468
aF10.796416151838073
aF8.386484243750981
aF3.16207902385727
aF21.066984588824123
aF8.362903963584307
aF10.696282473908315
aF1.2756881465204533
atp209
a(g1
(lp210
F11.316523286279127
aF10.675581923791748
aF8.248408254204056
aF3.0287318873585454
aF20.3325607110591
aF7.785693128769043
aF10.454032587345218
aF1.1223036328436344
atp211
a(g1
(lp212
F11.696313745160722
aF11.036949995415064
aF8.537110928812465
aF3.140466259674206
aF21.7514335343017
aF8.353309132536475
aF11.162176470867232
aF1.205303341923796
atp213
a(g1
(lp214
F11.539998267750391
aF10.89260324795111
aF8.438634295442574
aF3.140025542452611
aF21.327321968434386
aF8.295840740721449
aF10.923968638905134
aF1.233827105404319
atp215
a(g1
(lp216
F11.482614381687792
aF10.835630440940609
aF8.383861805520384
aF3.09761157751964
aF20.99611425815273
aF8.107749518127564
aF10.761966724715023
aF1.1847797602195915
atp217
a(g1
(lp218
F11.35719617490546
aF10.715732353914289
aF8.286398538337965
aF3.058352567107954
aF20.49331946688315
aF7.912502841358186
aF10.496579885304035
aF1.15086065569076
atp219
a(g1
(lp220
F11.550990175762163
aF10.900486825954069
aF8.436461024051988
aF3.1297211528763773
aF21.258928241073406
aF8.256770018832194
aF10.884535340413132
aF1.2217697033081711
atp221
a(g1
(lp222
F11.468346775519693
aF10.825839860825898
aF8.390509840747134
aF3.1281736942460325
aF21.097110611177794
aF8.23470324621492
aF10.782954098018372
aF1.2264696582077736
atp223
a(g1
(lp224
F11.487057252864041
aF10.837449330319762
aF8.37602825509768
aF3.0756171433166255
aF20.950082733346203
aF8.020701532066699
aF10.762593136386876
aF1.1501569924313098
atp225
a(g1
(lp226
F11.42498259827557
aF10.783610373833378
aF8.353267986008696
aF3.107149588623482
aF20.88447118497016
aF8.138348485682544
aF10.674602790655658
aF1.2065196743173296
atp227
a(g1
(lp228
F11.514568916521915
aF10.86475048740226
aF8.402153704900787
aF3.0983505767165593
aF21.163467542562962
aF8.13112936089542
aF10.879328073978822
aF1.184588304272226
atp229
a(g1
(lp230
F11.458233464730068
aF10.81007656224949
aF8.35444344876646
aF3.0685448343853037
aF20.915347785251967
aF7.999890378446175
aF10.7583514836045
aF1.1501237023316393
atp231
a(g1
(lp232
F11.494628271128377
aF10.846988511363207
aF8.393547174414776
aF3.1058807153682326
aF21.030620859392016
aF8.151773571404405
aF10.759830778060351
aF1.1958656817671782
atp233
a(g1
(lp234
F11.565312949777034
aF10.915078763255647
aF8.45125357433679
aF3.1355022953608556
aF21.427821921341664
aF8.292875815318803
aF10.992481897969983
aF1.2220378554092957
atp235
a(g1
(lp236
F11.533263995304367
aF10.887024190772353
aF8.438576725519622
aF3.148500717150809
aF21.339627194891897
aF8.342752330655145
aF10.895083054848945
aF1.2420933142150365
atp237
a(g1
(lp238
F11.578300963387896
aF10.925328513257458
aF8.451960501591623
aF3.128382153969346
aF21.388442584573145
aF8.264695080166202
aF10.982814678553737
aF1.218338545650663
atp239
a(g1
(lp240
F11.594383698514502
aF10.940364524854152
aF8.459935822070436
aF3.1096045498104488
aF21.4612419735028
aF8.200639949587877
aF11.056046112367676
aF1.1829278702362829
atp241
a(g1
(lp242
F8.195341978018211
aF7.72914850848449
aF5.966114951885065
aF2.194165372553136
aF12.784813723413341
aF4.262631897780569
aF6.908241555524632
aF0.4978299627149554
atp243
a(g1
(lp244
F8.147078636612214
aF7.681041794790519
aF5.915564364643931
aF2.123833909793519
aF12.649247450796924
aF4.074140544526778
aF6.884946756270611
aF0.4301338143953541
atp245
a(g1
(lp246
F8.349078092115517
aF7.876817550555969
aF6.087528645790906
aF2.2416548262699507
aF13.141383969980708
aF4.427532430792147
aF7.068431882239512
aF0.5265751901609971
atp247
a(g1
(lp248
F8.091637832956366
aF7.628632764589745
aF5.875306816802238
aF2.115624344287032
aF12.580922586240181
aF4.036930889841953
aF6.875552310534522
aF0.4310280215056523
atp249
a(g1
(lp250
F8.333792515549025
aF7.862140475671982
aF6.073997289068059
aF2.2210982100212795
aF13.156118986121136
aF4.359615915142375
aF7.0957978554819805
aF0.4922939112108354
atp251
a(g1
(lp252
F7.885575704565258
aF7.4295775994161515
aF5.704093643621077
aF2.023394522160908
aF11.869236426677928
aF3.757432013296631
aF6.521217581745656
aF0.3943154203002288
atp253
a(g1
(lp254
F8.364689446913342
aF7.888257745215595
aF6.083962144027038
aF2.2157981856191786
aF13.107935167167465
aF4.343226523713351
aF7.0894004690013865
aF0.49888503568112
atp255
a(g1
(lp256
F8.343925533841707
aF7.871119824546056
aF6.080642598262808
aF2.233545979307073
aF13.2459690048526
aF4.41323446040961
aF7.176766810689848
aF0.5265425187669278
atp257
a(g1
(lp258
F7.729719094295534
aF7.284531461119349
aF5.599811804009923
aF1.9900291848150558
aF11.644236794748231
aF3.648639694188948
aF6.38493049698237
aF0.3563915267382877
atp259
a(g1
(lp260
F7.857081947944176
aF7.40970444227122
aF5.7181655745146855
aF2.095809824013694
aF11.842538444714913
aF3.9419599764058684
aF6.400117202451808
aF0.45753355806481394
atp261
a(g1
(lp262
F7.857615224541085
aF7.407911958306029
aF5.7058920310761545
aF2.052949665972093
aF12.02538083025429
aF3.829372191025557
aF6.575874665690567
aF0.3936780961909344
atp263
a(g1
(lp264
F8.337522843358366
aF7.8657269216930334
aF6.0784334522817876
aF2.2389094775036464
aF13.17332032905435
aF4.414523835712163
aF7.118311566696547
aF0.5279627665452973
atp265
a(g1
(lp266
F7.8146104920251425
aF7.361899804366906
aF5.6484447292386335
aF1.9886667321204483
aF11.63694459952458
aF3.6454750977130144
aF6.406359300395403
aF0.37081630060736376
atp267
a(g1
(lp268
F8.483424564992193
aF8.00267249192112
aF6.181723577552088
aF2.2735578521501902
aF13.247146358470255
aF4.514776429509207
aF7.104985270927075
aF0.5585572284424013
atp269
a(g1
(lp270
F8.409658781069545
aF7.933398541578387
aF6.1273555196012754
aF2.2395837581522757
aF13.254907563309784
aF4.422509870425578
aF7.1640984343352425
aF0.5243188125894473
atp271
a(g1
(lp272
F8.319665680421041
aF7.850449007410316
aF6.072226032824569
aF2.23977943529786
aF13.092838131245323
aF4.400504197818832
aF7.018954795829627
aF0.5069162452825727
atp273
a(g1
(lp274
F7.998456106303125
aF7.541757614694385
aF5.812568138045569
aF2.1040794167946526
aF12.135889325233542
aF3.9852029436977454
aF6.583721726100582
aF0.45057468208731155
atp275
a(g1
(lp276
F7.867406300871298
aF7.415519069805755
aF5.706245468411925
aF2.050244102708487
aF11.951042364398708
aF3.8262738414971147
aF6.498454062635325
aF0.38786857790963
atp277
a(g1
(lp278
F7.781084449905344
aF7.328620961160366
aF5.619460341692659
aF1.9868726823798244
aF11.643369992604978
aF3.6636001116550743
aF6.4052611873103675
aF0.3754081280327551
atp279
a(g1
(lp280
F8.153631107013812
aF7.688335253239583
aF5.925607767726217
aF2.1419316211049364
aF12.544323895446327
aF4.104786911203346
aF6.795595538341983
aF0.4531251279307079
atp281
a(g1
(lp282
F8.095570358139067
aF7.631980174192504
aF5.8783449615601295
aF2.12927780498195
aF12.456758786793095
aF4.073926062008816
aF6.770626454849757
aF0.4575772756361442
atp283
a(g1
(lp284
F8.443921690895106
aF7.959378220501004
aF6.12290792608731
aF2.1897879674209713
aF13.246671262603794
aF4.301898772184366
aF7.1996563466685695
aF0.47055902087280954
atp285
a(g1
(lp286
F7.863868700599215
aF7.408669844054481
aF5.68777935027648
aF2.0211958548937083
aF11.848820513539694
aF3.7647282362137724
aF6.49800764555227
aF0.39640858051887157
atp287
a(g1
(lp288
F8.13695215544761
aF7.6716886950817145
aF5.909674866747218
aF2.1303847801627103
aF12.497169934510525
aF4.074403160814142
aF6.775842688106135
aF0.4450495990710998
atp289
a.