(lp0
(VAl
p1
(lp2
F7.978555199036372
aF7.522762630932605
aF5.796285806866306
aF2.088221526485025
aF12.243366632634489
aF3.9529809995329974
aF6.67181902337863
aF0.42635999853129486
atp3
a(g1
(lp4
F8.250647579475995
aF7.780660170433082
aF6.00235957809688
aF2.1933798338183648
aF12.826072718139862
aF4.2729761775987205
aF6.933062224489483
aF0.5016099473466102
atp5
a(g1
(lp6
F7.880036404452525
aF7.425425368849548
aF5.705273634518822
aF2.027969195030532
aF12.004958977502675
aF3.783994057247622
aF6.582990080784513
aF0.3809461876546369
atp7
a(g1
(lp8
F8.09489971999786
aF7.628248931747817
aF5.864132103443032
aF2.10397841210595
aF12.399750980689928
aF3.999505109363171
aF6.755338192937865
aF0.427637480377547
atp9
a(g1
(lp10
F8.24759930884032
aF7.781514429660656
aF6.015652711028562
aF2.2133893433366256
aF12.969253587874341
aF4.328106366581513
aF6.99350148840621
aF0.502876179115356
atp11
a(g1
(lp12
F8.174063441148439
aF7.710571964169415
aF5.954893389519325
aF2.177803104858232
aF12.75649795315841
aF4.213781342840604
aF6.9029774863737074
aF0.4811363770911781
atp13
a(g1
(lp14
F7.979415356890884
aF7.522229771678533
aF5.790863190734817
aF2.0748851094632252
aF12.23580920479161
aF3.922824418209154
aF6.673354550386337
aF0.4120323648280057
atp15
a(g1
(lp16
F8.41484530053175
aF7.935223970642179
aF6.1180225300223485
aF2.224653455518657
aF13.239126368450869
aF4.381399647309945
aF7.160278673553516
aF0.5030557282233779
atp17
a(g1
(lp18
F7.949093658498019
aF7.491062717772599
aF5.7573784639954395
aF2.049536046466903
aF12.170372163502826
aF3.849495581706407
aF6.666918966870229
aF0.39104121643437595
atp19
a(g1
(lp20
F8.127331238353705
aF7.663600699400273
aF5.909136396123495
aF2.1528972962500195
aF12.551643416087618
aF4.13096134566359
aF6.808592682817431
aF0.46967716001670456
atp21
a(g1
(lp22
F8.077006241576964
aF7.616234585998038
aF5.873348475732788
aF2.141683440352268
aF12.384952358613027
aF4.0962761207256815
aF6.721646840239869
aF0.48012792935561655
atp23
a(g1
(lp24
F8.12906090433923
aF7.662406997222044
aF5.895234643123674
aF2.111182534096322
aF12.532555935942064
aF4.026015408517314
aF6.83000378353174
aF0.42356216040526
atp25
a(g1
(lp26
F8.149031450402857
aF7.681741691018954
aF5.912564572347532
aF2.1282652679777265
aF12.598218516218461
aF4.091380601332161
aF6.862839854702214
aF0.45275950163714845
atp27
a(g1
(lp28
F8.320141841350674
aF7.846906813237306
aF6.053654740225608
aF2.1982778546432122
aF13.168433389896322
aF4.299762063702931
aF7.139245320348078
aF0.46886190154647606
atp29
a(g1
(lp30
F8.459717899522742
aF7.980247971435688
aF6.162987928467964
aF2.255805651713019
aF13.422909515166618
aF4.4851283937924045
aF7.258907453053794
aF0.5354643054320002
atp31
a(g1
(lp32
F8.082758959383902
aF7.621174953677328
aF5.873605625076999
aF2.1261744699611547
aF12.519154226339626
aF4.0638461304365165
aF6.803590679817913
aF0.439502922234527
atp33
a(g1
(lp34
F8.159806707634374
aF7.6933696325108345
aF5.9270107703356185
aF2.141529278173705
aF12.68461594366522
aF4.118270211102551
aF6.90924231031211
aF0.45521024076978295
atp35
a(g1
(lp36
F8.298144899743885
aF7.827207991081925
aF6.043380496738546
aF2.213754809949378
aF13.21979496682494
aF4.350273024193947
aF7.162307549232837
aF0.4876644479418662
atp37
a(g1
(lp38
F8.028441549004844
aF7.570375088278254
aF5.834710452036136
aF2.105539913366702
aF12.655107650773347
aF4.029398196323373
aF6.9406771705481916
aF0.4238190688213871
atp39
a(g1
(lp40
F8.166855617413125
aF7.705205734407021
aF5.955985057117538
aF2.1876958600787826
aF12.810306390988448
aF4.25566198458726
aF6.91427689425831
aF0.48521279684288593
atp41
a(g1
(lp42
F8.015390773420554
aF7.554735002332119
aF5.811352581003928
aF2.080324134313933
aF12.23249330988706
aF3.9308914455849955
aF6.6691410162944855
aF0.41631993823188146
atp43
a(g1
(lp44
F8.313689264358832
aF7.835599405306034
aF6.026234796236422
aF2.1641448223323203
aF13.018771862869665
aF4.200576857502623
aF7.109663770274889
aF0.45992179721649734
atp45
a(g1
(lp46
F8.530335420096831
aF8.045436992741067
aF6.208525851229839
aF2.2647707817165728
aF13.628731866690687
aF4.5295080737484374
aF7.357114558810884
aF0.5201349112332297
atp47
a(g1
(lp48
F8.040398161796539
aF7.580923281945546
aF5.842417832207531
aF2.121120121996329
aF12.371212015304387
aF4.0510808158827585
aF6.731000267630436
aF0.46222305721972856
atp49
a(g1
(lp50
F11.636342262867004
aF10.978313432793433
aF8.484373641433839
aF3.114139244395122
aF21.56882913306402
aF8.232240591886177
aF11.111592043002801
aF1.1845762860714706
atp51
a(g1
(lp52
F11.64854948835431
aF10.98965645524244
aF8.495317152791818
aF3.1365935588779124
aF21.57770402904487
aF8.320951305741378
aF11.086229348851397
aF1.222732744021075
atp53
a(g1
(lp54
F11.565300594432436
aF10.913577148573324
aF8.44374186684924
aF3.115179429120068
aF21.4115521734037
aF8.215995149195416
aF11.014374029526765
aF1.1926896623313288
atp55
a(g1
(lp56
F11.578238166745258
aF10.927544046808071
aF8.460884896273125
aF3.133560074214167
aF21.487933429177524
aF8.299740426232395
aF11.02347094477072
aF1.2161858314458256
atp57
a(g1
(lp58
F11.529070885955505
aF10.878990040358609
aF8.414166987043021
aF3.0948994682686846
aF21.28823781578643
aF8.125667113803706
aF10.975829003147284
aF1.1687289145826876
atp59
a(g1
(lp60
F11.605080633716758
aF10.954054400865543
aF8.486888731068975
aF3.159837308595488
aF21.567560571054496
aF8.410344624449422
aF11.026642274896973
aF1.2513853994093393
atp61
a(g1
(lp62
F11.523519294845078
aF10.875296887176386
aF8.417256568991808
aF3.1105048712592787
aF21.27145631959445
aF8.189126313247655
aF10.928296217465311
aF1.1957921224191121
atp63
a(g1
(lp64
F11.542043895139367
aF10.891842222167313
aF8.430144867358148
aF3.133708494099896
aF21.28529723324029
aF8.277360024331013
aF10.907730244448151
aF1.2332541327939501
atp65
a(g1
(lp66
F11.498075689125123
aF10.85429236203845
aF8.41475278264182
aF3.144724040617721
aF21.186513620663916
aF8.3077000936178
aF10.811635975537856
aF1.2493753058759183
atp67
a(g1
(lp68
F11.552849944452754
aF10.905177404670152
aF8.449608365465004
aF3.1434675757656927
aF21.377084779149243
aF8.32549700678293
aF10.931914202668917
aF1.2354919799871176
atp69
a(g1
(lp70
F11.615651899023739
aF10.960030285286207
aF8.475620353465313
aF3.1257880729789704
aF21.481683800436368
aF8.272982655387809
aF11.034203898255566
aF1.2096839126204377
atp71
a(g1
(lp72
F11.56110741878546
aF10.909532882145225
aF8.439552134659024
aF3.113693889123331
aF21.315610362187673
aF8.209395344717308
aF10.94413071114117
aF1.1949036769103114
atp73
a(g1
(lp74
F11.450879076493294
aF10.804798106343169
aF8.357467265048955
aF3.086266979968802
aF20.900902706644434
aF8.050846383146043
aF10.73091825740908
aF1.1751151449526247
atp75
a(g1
(lp76
F11.579267430883943
aF10.924677691469876
aF8.444571071764367
aF3.1055759949182455
aF21.36071360198951
aF8.168535068317599
aF11.000648815135955
aF1.1803449725395967
atp77
a(g1
(lp78
F11.595803153357398
aF10.941268183139378
aF8.461953267112696
aF3.125723422299751
aF21.422559759745482
aF8.260527568390946
aF11.006779857003634
aF1.2116557536959403
atp79
a(g1
(lp80
F11.541166364404354
aF10.888563978877146
aF8.417401866298373
aF3.1025544242913927
aF21.18412295817635
aF8.147349602771332
aF10.885995962424598
aF1.1855605166432155
atp81
a(g1
(lp82
F11.579094058747428
aF10.92846789164325
aF8.462020099459833
aF3.134002875911934
aF21.43714566700885
aF8.29126790733596
aF10.981815731742278
aF1.2133347704689368
atp83
a(g1
(lp84
F11.532428153188636
aF10.889606458432523
aF8.453333913690864
aF3.174591223201046
aF21.42071973772547
aF8.44498259623673
aF10.897862038115651
aF1.272524153803649
atp85
a(g1
(lp86
F11.64833935730228
aF10.997508071495774
aF8.529451045420368
aF3.190952650632869
aF21.841195971540348
aF8.548171643992909
aF11.169327182059735
aF1.2875949600785486
atp87
a(g1
(lp88
F11.643349932472566
aF10.992905011759738
aF8.525913697659012
aF3.1862806979985185
aF21.79489872111909
aF8.528819768240098
aF11.134402709577198
aF1.2788499964738245
atp89
a(g1
(lp90
F11.607810265038232
aF10.952057318274774
aF8.46715985063441
aF3.112469764288674
aF21.49850731370391
aF8.21477678040419
aF11.068365125360204
aF1.1812796254173752
atp91
a(g1
(lp92
F11.505877429806551
aF10.857629161686846
aF8.401458009265388
aF3.1090470905428416
aF21.19123199813712
aF8.169354192422587
aF10.895291645625775
aF1.2000201670042614
atp93
a(g1
(lp94
F11.592935496149568
aF10.944050351246053
aF8.486685127819722
aF3.185225111004921
aF21.64265476393048
aF8.503645749700148
aF11.067698369177272
aF1.294564582451578
atp95
a(g1
(lp96
F11.753091889869191
aF11.095650964059795
aF8.603057404070821
aF3.214181126056404
aF22.211444947896155
aF8.678725019962075
aF11.362191423635025
aF1.302098474061947
atp97
a(g1
(lp98
F12.640470798365847
aF11.893528128912951
aF9.090100610767696
aF3.255022744720804
aF24.556334729753235
aF9.072036894902851
aF12.926949847671212
aF1.2953928051583943
atp99
a(g1
(lp100
F12.62769183495608
aF11.87907594440288
aF9.067493742381513
aF3.210019243139824
aF24.464613811102307
aF8.884682834646867
aF12.938909662186083
aF1.2250390988964943
atp101
a(g1
(lp102
F12.618229074655314
aF11.86935375298148
aF9.058959945821565
aF3.218368763907076
aF24.38525361687504
aF8.909665266047096
aF12.884710205801328
aF1.2478304337985626
atp103
a(g1
(lp104
F12.62869528541943
aF11.880462159836837
aF9.07147512071819
aF3.226396805730752
aF24.464657618008502
aF8.948750162270123
aF12.918625709482038
aF1.2538057510521703
atp105
a(g1
(lp106
F12.590610880807288
aF11.845522026702417
aF9.04823420181502
aF3.22010325775848
aF24.334746765730532
aF8.90912600238669
aF12.83248119322921
aF1.243919036273186
atp107
a(g1
(lp108
F12.611161369330045
aF11.86613951824968
aF9.067063452129226
aF3.228387735980275
aF24.45068397962663
aF8.955524045354265
aF12.896887351549402
aF1.2534237247110618
atp109
a(g1
(lp110
F12.600245745251678
aF11.855018226186068
aF9.058026029247447
aF3.236529047362765
aF24.37216123951614
aF8.978883838084862
aF12.835039667231083
aF1.2718065250947583
atp111
a(g1
(lp112
F12.593413144466773
aF11.847500820580523
aF9.047735006008077
aF3.218914598070986
aF24.324502399310386
aF8.905471584952327
aF12.83317506054721
aF1.2458202117385435
atp113
a(g1
(lp114
F12.467971828176404
aF11.724887449690293
aF8.937658647093146
aF3.157841611817529
aF23.67420373383188
aF8.602827207377189
aF12.515201443022654
aF1.1873173832160486
atp115
a(g1
(lp116
F12.573424184524956
aF11.826153258777936
aF9.022048957841777
aF3.1937128566551425
aF24.178509561256803
aF8.791166011025727
aF12.782795194428637
aF1.214326408971406
atp117
a(g1
(lp118
F12.580889668928341
aF11.833816041897652
aF9.029646525809568
aF3.1967982811470823
aF24.22865344602322
aF8.807601756500011
aF12.808106701259586
aF1.214853314407747
atp119
a(g1
(lp120
F12.480614306097902
aF11.737846841648816
aF8.950283964797709
aF3.1540405926211803
aF23.773654675780424
aF8.595915843969989
aF12.579273720836785
aF1.169164937776846
atp121
a(g1
(lp122
F12.480733098826418
aF11.739226432661903
aF8.957022640289003
aF3.175969771562594
aF23.79019668458178
aF8.684871973885516
aF12.553279381795914
aF1.2063270677235545
atp123
a(g1
(lp124
F12.589458696045254
aF11.845447361563414
aF9.050050648005088
aF3.2146839014868687
aF24.367464955765612
aF8.88791342059953
aF12.85999839631029
aF1.2293024380427957
atp125
a(g1
(lp126
F12.607761066286084
aF11.858650712721492
aF9.047423071889513
aF3.2067742632564054
aF24.321857072884015
aF8.857650234276143
aF12.863221379483903
aF1.2314421398776356
atp127
a(g1
(lp128
F12.485100777934745
aF11.742455821734643
aF8.954645638790613
aF3.158640481731265
aF23.79464244357478
aF8.616820744968102
aF12.586338802139466
aF1.1784955530279757
atp129
a(g1
(lp130
F12.589209929184946
aF11.84119905727951
aF9.032920255164402
aF3.1917362212314035
aF24.253301009770816
aF8.789065539325126
aF12.837114881540023
aF1.2077067681404312
atp131
a(g1
(lp132
F12.639332440361029
aF11.88927509896406
aF9.072176152387257
aF3.2101174843195235
aF24.489831208164617
aF8.882146952196372
aF12.968569014424585
aF1.2267356246852736
atp133
a(g1
(lp134
F12.706325727043783
aF11.953171298707298
aF9.124835144106349
aF3.2408786884257026
aF24.790732398833132
aF9.036482024876628
aF13.122151582503273
aF1.264441616835107
atp135
a(g1
(lp136
F12.623891908008927
aF11.877428130079815
aF9.074323498257261
aF3.231897465968208
aF24.492271933366567
aF8.968542743375194
aF12.919065259942478
aF1.2547138580578627
atp137
a(g1
(lp138
F12.635991436650846
aF11.886388325243026
aF9.073810583766392
aF3.2293912329641152
aF24.46869202561295
aF8.959908436980637
aF12.917170657581064
aF1.2582304117965786
atp139
a(g1
(lp140
F12.64211734977857
aF11.891794543430677
aF9.07407920138203
aF3.2068685594565047
aF24.50782884901046
aF8.872849208733435
aF12.980023551090753
aF1.2183705392179816
atp141
a(g1
(lp142
F12.655861115296705
aF11.910907338176663
aF9.113531486294857
aF3.273633113577361
aF24.71167195482568
aF9.157348260390489
aF12.984568396815119
aF1.3082920814930177
atp143
a(g1
(lp144
F12.668566421052764
aF11.920431244672187
aF9.109701292970222
aF3.251500462722101
aF24.692214427756973
aF9.073685252582688
aF13.027976588893662
aF1.2859703755204952
atp145
a(g1
(lp146
F12.70041627388202
aF11.950919316060027
aF9.135969552570446
aF3.267438777432707
aF24.84731828784404
aF9.15043504077301
aF13.09726472635965
aF1.299080026427601
atp147
a(g1
(lp148
F12.677561902536743
aF11.9314263112263
aF9.128823412624193
aF3.276752990795211
aF24.805687747770843
aF9.179857663849601
aF13.04347685525445
aF1.3090727165057259
atp149
a(g1
(lp150
F12.66889711472838
aF11.917744293883281
aF9.10011029846879
aF3.243951577210031
aF24.62166428516905
aF9.030021249891874
aF12.994101351355608
aF1.272331993474251
atp151
a(g1
(lp152
F12.69461622448862
aF11.940372212614095
aF9.109343599160606
aF3.2254102321620426
aF24.69686973509498
aF8.966083938575306
aF13.083532622108141
aF1.243031247615847
atp153
a(g1
(lp154
F12.640556788997667
aF11.89089245588707
aF9.077820809068706
aF3.2298373391147046
aF24.49608024918913
aF8.964019430230547
aF12.935569606500746
aF1.2567247145590528
atp155
a(g1
(lp156
F12.633895710352364
aF11.885775289220021
aF9.076562114205945
aF3.2260869063417603
aF24.502463663607003
aF8.951498493540331
aF12.939079909119437
aF1.2495356087278815
atp157
a(g1
(lp158
F12.642873788861252
aF11.893082911620931
aF9.078108723456122
aF3.2214976496374566
aF24.510480419314504
aF8.933681210383577
aF12.959145347931017
aF1.243236492949336
atp159
a(g1
(lp160
F12.658317919547033
aF11.909399394660028
aF9.094152844950111
aF3.2202191294639695
aF24.635039972617275
aF8.939744376160593
aF13.042077151438624
aF1.2330602511094146
atp161
a(g1
(lp162
F12.5196342316246
aF11.77364383062539
aF8.975437418712405
aF3.170651294389172
aF23.905093118379703
aF8.673851943159827
aF12.647353931486954
aF1.1951733098250268
atp163
a(g1
(lp164
F12.511859282955758
aF11.768774817312186
aF8.979344691721176
aF3.1769280014756807
aF23.934034321801956
aF8.704948834384695
aF12.646629598475258
aF1.2024352447327602
atp165
a(g1
(lp166
F12.634740764122563
aF11.886986667678581
aF9.082073655821798
aF3.2499325415949034
aF24.50266522527468
aF9.044330427620771
aF12.902608784848505
aF1.2885690958177225
atp167
a(g1
(lp168
F12.641605955812624
aF11.89711390586688
aF9.100012207148477
aF3.2590281342436294
aF24.64595456135652
aF9.092380466646109
aF12.970925574511902
aF1.2888091765038576
atp169
a(g1
(lp170
F12.416771921232986
aF11.669979238571164
aF8.868299378032273
aF3.072606222213777
aF23.31018334332849
aF8.245791373947892
aF12.42966208684784
aF1.0838145630482872
atp171
a(g1
(lp172
F12.494285675542976
aF11.75464640736584
aF8.977477752366584
aF3.1920162780473342
aF23.92613049299109
aF8.758813351245621
aF12.606897388399672
aF1.2198359415937743
atp173
a(g1
(lp174
F12.622507314609567
aF11.878425970872733
aF9.083891600586616
aF3.2510415019117147
aF24.541667138158978
aF9.054834616939893
aF12.912344829192278
aF1.28362879135072
atp175
a(g1
(lp176
F12.535086327609749
aF11.79249836491719
aF9.004661405790454
aF3.199407378259327
aF24.08545457946273
aF8.802946296931715
aF12.70574669886479
aF1.2254603836370404
atp177
a(g1
(lp178
F12.501867711978646
aF11.7599180264702
aF8.975397293039016
aF3.1840597244992526
aF23.905196792196282
aF8.725853457377736
aF12.611962202689385
aF1.2094556664064948
atp179
a(g1
(lp180
F12.568870679215026
aF11.826477454283198
aF9.039640838337231
aF3.2325225795033266
aF24.27117806770689
aF8.952180818660828
aF12.769502262249624
aF1.2674479933697091
atp181
a(g1
(lp182
F12.621781346463106
aF11.872537107266332
aF9.059472173768633
aF3.212802710314782
aF24.39682146276623
aF8.887150201486978
aF12.908114637395906
aF1.2405917483445148
atp183
a(g1
(lp184
F12.566678174728349
aF11.823297835884487
aF9.033120363770985
aF3.224357909443141
aF24.2305453215432
aF8.914706382715151
aF12.759128534578725
aF1.2566903506576577
atp185
a(g1
(lp186
F12.657574496065516
aF11.908706035141027
aF9.09586916666465
aF3.2327313730831326
aF24.62631012573913
aF8.987259888357846
aF13.00790952030314
aF1.2504482451338608
atp187
a(g1
(lp188
F12.605668002587784
aF11.859541730453504
aF9.057674130979487
aF3.2228864099258496
aF24.39234942597152
aF8.926578202117634
aF12.876178362531332
aF1.2515675505701112
atp189
a(g1
(lp190
F12.614773625314404
aF11.868327310279929
aF9.063043614539502
aF3.2109335356534183
aF24.448995731336733
aF8.883735250773835
aF12.929739970263192
aF1.2262331452315418
atp191
a(g1
(lp192
F12.669238153285326
aF11.921679480095086
aF9.113332398493302
aF3.252397563394601
aF24.72558359439957
aF9.07409516193433
aF13.034091847282802
aF1.2744802983787973
atp193
a(g1
(lp194
F11.704505464574602
aF11.045588308676908
aF8.548654110955727
aF3.1650831798226498
aF21.925135044301282
aF8.459263005455423
aF11.264290789552792
aF1.2423545448728937
atp195
a(g1
(lp196
F11.779071247897036
aF11.115941236097473
aF8.602526556007879
aF3.1822137556109893
aF22.186018875178554
aF8.546053218884907
aF11.413739080381962
aF1.2577975887143273
atp197
a(g1
(lp198
F11.639038787573114
aF10.985008215414148
aF8.50590144159053
aF3.15436821879785
aF21.713731586203938
aF8.390522356517629
aF11.152239220178664
aF1.233682761657014
atp199
a(g1
(lp200
F11.772789211901276
aF11.106024821266768
aF8.579923049598229
aF3.147226223082733
aF22.07104884735249
aF8.401449192879507
aF11.405545846708188
aF1.2122986205281023
atp201
a(g1
(lp202
F11.51278299718482
aF10.862587047846167
aF8.399032715648975
aF3.0940232332448945
aF21.131026313725624
aF8.112486109737658
aF10.867814332445095
aF1.1782711707390303
atp203
a(g1
(lp204
F11.571462040577943
aF10.918407598215753
aF8.443247148498589
aF3.110242372738356
aF21.37588574753541
aF8.193791661470627
aF11.004280532846366
aF1.1889945903013355
atp205
a(g1
(lp206
F11.559282719217787
aF10.910742609667324
aF8.454035656569399
aF3.1540148538724253
aF21.526412985892783
aF8.365523298910132
aF11.057947593931424
aF1.2524190095083716
atp207
a(g1
(lp208
F11.622714542768929
aF10.976582525053484
aF8.526788874336347
aF3.2169550327488827
aF21.775674692679463
aF8.653809755341713
aF11.053550441982088
aF1.3243820793575407
atp209
a(g1
(lp210
F11.315393801806758
aF10.673866703387397
aF8.244398977276145
aF3.02233913190575
aF20.33764465058392
aF7.763382254780093
aF10.477830085308844
aF1.115480542301578
atp211
a(g1
(lp212
F11.716646804990525
aF11.056689911448707
aF8.554633460488812
aF3.1511372799306803
aF21.90510083093967
aF8.409869205880241
aF11.249328771920787
aF1.214612774040699
atp213
a(g1
(lp214
F11.636558966866017
aF10.986304158074555
aF8.519911143135381
aF3.1817365691706847
aF21.826329589681617
aF8.50798605004829
aF11.179979375206344
aF1.2733438278413154
atp215
a(g1
(lp216
F11.559971312658465
aF10.911270639278586
aF8.452299971627777
aF3.144050698062277
aF21.37407252054543
aF8.321934885597061
aF10.933630950783826
aF1.2347364129557148
atp217
a(g1
(lp218
F11.470874444120433
aF10.823448719984844
aF8.370817627048002
aF3.088378216409235
aF20.984594337754633
aF8.072837206987945
aF10.776542077799045
aF1.172160852493166
atp219
a(g1
(lp220
F11.627740982297995
aF10.977536286778587
aF8.515031835154488
aF3.199955026169507
aF21.703596247436778
aF8.576163133516985
aF11.053458161768285
aF1.3078013450856731
atp221
a(g1
(lp222
F11.50979984074157
aF10.864146429594527
aF8.416422968716475
aF3.127292942241244
aF21.308333488561217
aF8.250529762584499
aF10.934195286957358
aF1.2179787225355412
atp223
a(g1
(lp224
F11.528686020175877
aF10.87709591194892
aF8.408693745815603
aF3.0944258023231273
aF21.114493057330318
aF8.115962896360895
aF10.835378625734794
aF1.1724774989743236
atp225
a(g1
(lp226
F11.543775834866672
aF10.894412115792955
aF8.434093301427678
aF3.1309638990790614
aF21.342708863769552
aF8.273947219812072
aF10.944689033545176
aF1.2241863994796944
atp227
a(g1
(lp228
F11.550431401709474
aF10.899105989800404
aF8.430619356330062
aF3.1104992752416436
aF21.329947264710444
aF8.194320861904359
aF10.966227889654967
aF1.1917101877893412
atp229
a(g1
(lp230
F11.569311532905628
aF10.915487771874398
aF8.438515867893276
aF3.1070920032016414
aF21.37505611341981
aF8.182241884574939
aF11.009479153466113
aF1.185084040456969
atp231
a(g1
(lp232
F11.595385616314957
aF10.943691114624217
aF8.474688921226708
aF3.148824298811935
aF21.50670816665504
aF8.361912199578917
aF11.00656557449339
aF1.2384845991418074
atp233
a(g1
(lp234
F11.635591359276226
aF10.98374443600185
aF8.514663374077573
aF3.186271389049398
aF21.772511317692228
aF8.52766254598465
aF11.134923948245
aF1.286579821479834
atp235
a(g1
(lp236
F11.599225115925188
aF10.948253895836894
aF8.48130956560297
aF3.1540731944227853
aF21.627200578134637
aF8.384678215860458
aF11.09699208586419
aF1.2392710901280077
atp237
a(g1
(lp238
F11.61173073377542
aF10.962471831369587
aF8.501598541329543
aF3.1828124731136525
aF21.66453931217419
aF8.505155523763586
aF11.059458969656896
aF1.283670210436857
atp239
a(g1
(lp240
F11.656471016208792
aF11.001563022544126
aF8.51802750806179
aF3.1564566139795316
aF21.78801075074963
aF8.41340913506934
aF11.19835155332113
aF1.240947834689333
atp241
a(g1
(lp242
F8.211948476424189
aF7.744665223585371
aF5.97744691581736
aF2.1957788266033305
aF12.885701742704727
aF4.276615392064451
aF6.982745870488105
aF0.49974170366100207
atp243
a(g1
(lp244
F8.264834951404325
aF7.79295691125226
aF6.006348493549573
aF2.1751720702576383
aF13.056748390407384
aF4.241463463902696
aF7.0980039571947895
aF0.45888097164463293
atp245
a(g1
(lp246
F8.386879887501776
aF7.912469085058238
aF6.115351206286011
aF2.2547874414766693
aF13.350596491215105
aF4.473829600029558
aF7.203363042813498
aF0.5299358954811106
atp247
a(g1
(lp248
F8.195604382385286
aF7.729610467584774
aF5.964675716395952
aF2.1717875915790144
aF12.912475802093386
aF4.201044589639724
aF7.021455942016964
aF0.46018281983839315
atp249
a(g1
(lp250
F8.318805942085461
aF7.845517009109847
aF6.050987183312894
aF2.1865621017414596
aF13.109910744639167
aF4.271871110715047
aF7.129432663787744
aF0.47532678295864816
atp251
a(g1
(lp252
F8.075352337286674
aF7.6120469983140655
aF5.858711045365571
aF2.1116815632499293
aF12.430161189527391
aF4.023537058468525
aF6.781711668374352
aF0.4410865603119337
atp253
a(g1
(lp254
F8.372701278286884
aF7.894015458347636
aF6.0821799671155725
aF2.207122081470427
aF13.202368665692516
aF4.330715939821607
aF7.171700306727151
aF0.48869085003906376
atp255
a(g1
(lp256
F8.319305184668632
aF7.846695618119368
aF6.057006564741086
aF2.2139792787034938
aF13.21672079502593
aF4.3576245041953685
aF7.187200098575359
aF0.5104106523669831
atp257
a(g1
(lp258
F7.942962848594929
aF7.491042904005833
aF5.7789815508894735
aF2.091958483849796
aF12.262442532571285
aF3.9447999298396157
aF6.678380025444884
aF0.415946118394198
atp259
a(g1
(lp260
F7.925589000062548
aF7.472991129143117
aF5.762478230212776
aF2.108081211420715
aF11.984538974035468
aF3.981381501844428
aF6.491697492301196
aF0.46778702102180975
atp261
a(g1
(lp262
F7.823513146331945
aF7.369940010197604
aF5.653988972732034
aF1.9903716108601026
aF11.938064219795104
aF3.679924809676557
aF6.60078563967295
aF0.3518127065352177
atp263
a(g1
(lp264
F8.418858618023144
aF7.946866233278148
aF6.1578137279478895
aF2.300560438487937
aF13.548177818934
aF4.623385790019341
aF7.266721244434322
aF0.5652814438660215
atp265
a(g1
(lp266
F7.875469200285257
aF7.4210960033915985
aF5.701276112946206
aF2.0253301432688047
aF11.830657670802028
aF3.750974008565709
aF6.4971681608898715
aF0.3959031826652094
atp267
a(g1
(lp268
F8.408765496764207
aF7.929210175385204
aF6.113257392966553
aF2.2215331660693227
aF13.144561344884883
aF4.370512715128125
aF7.094358464551686
aF0.5030329542632549
atp269
a(g1
(lp270
F8.478107253148924
aF7.996612764459714
aF6.171395602953871
aF2.2521688223328673
aF13.472351250352743
aF4.491659741914974
aF7.282363876259998
aF0.5300202875557609
atp271
a(g1
(lp272
F8.170197515015007
aF7.7059408015767294
aF5.9475720998797765
aF2.169659353304212
aF12.77116278584619
aF4.196396435504903
aF6.920794758418328
aF0.47033853362745653
atp273
a(g1
(lp274
F8.097639689896303
aF7.635046288257275
aF5.884063558209605
aF2.1335481571670196
aF12.413875116573116
aF4.090572258207848
aF6.732879418357781
aF0.4684332732205446
atp275
a(g1
(lp276
F7.921307534738162
aF7.465870427575792
aF5.743397600602159
aF2.0630497576038906
aF12.130263893689754
aF3.883454556319805
aF6.610691769880679
aF0.4010613133149972
atp277
a(g1
(lp278
F7.836093789940066
aF7.38204840499644
aF5.666758791063588
aF2.0190248735587373
aF11.883370811560974
aF3.7638673031928933
aF6.5223410832374356
aF0.3888830929354538
atp279
a(g1
(lp280
F8.193607657028405
aF7.7250655997743385
aF5.949212672196836
aF2.1352626250046125
aF12.720594361690983
aF4.108059517489442
aF6.912561301380287
aF0.43499934056500356
atp281
a(g1
(lp282
F8.222475032702743
aF7.752253036849473
aF5.97236272560472
aF2.1616663674451932
aF12.870139457046378
aF4.1918187172196975
aF7.009210845391529
aF0.4681397503883249
atp283
a(g1
(lp284
F8.433752138389085
aF7.949666389053619
aF6.114958669805581
aF2.1830414440880843
aF13.298723064524658
aF4.292607514202246
aF7.247912272364843
aF0.4645698987633288
atp285
a(g1
(lp286
F7.93303899372177
aF7.474612155846473
aF5.741829311010594
aF2.0494864409553246
aF12.095156157676533
aF3.8525870782702203
aF6.6361993837885205
aF0.4099086239303086
atp287
a(g1
(lp288
F8.207482442024931
aF7.739901400948633
aF5.968958783911702
aF2.1679105751201857
aF12.827986674326155
aF4.201947579863521
aF6.961454214580685
aF0.4709437116392844
atp289
a.