(lp0
(VAl
p1
(lp2
F8.098304539283431
aF7.637572143733788
aF5.892296565803193
aF2.1396030723735757
aF12.74307051961142
aF4.121677144037066
aF6.940181715281069
aF0.4438594151416006
atp3
a(g1
(lp4
F8.383767816619514
aF7.907356133427509
aF6.103262028362829
aF2.2320613339783044
aF13.315867694033583
aF4.42634682190159
aF7.20700091708333
aF0.51663393594256
atp5
a(g1
(lp6
F8.23141087631143
aF7.762635082102132
aF5.986848207417353
aF2.173834368441544
aF13.094057860035267
aF4.251719612007483
aF7.1280206740350325
aF0.46344073509746236
atp7
a(g1
(lp8
F8.166098291202776
aF7.699403796666429
aF5.932785916683976
aF2.1458140336434424
aF12.921592802546591
aF4.161245136333375
aF7.068734834506942
aF0.45418887874475333
atp9
a(g1
(lp10
F8.324071013013487
aF7.850053632474375
aF6.057336579466346
aF2.2198775321154676
aF13.249763088282274
aF4.375936925182657
aF7.178933373814521
aF0.4990438240958029
atp11
a(g1
(lp12
F8.301360577011595
aF7.826942031205605
aF6.029876506999084
aF2.176376136705612
aF13.110740513522599
aF4.2537443488430595
aF7.160935125434003
aF0.47749655258027884
atp13
a(g1
(lp14
F8.189685665888476
aF7.718037096753951
aF5.933978917358871
aF2.124566223557855
aF12.725569628294512
aF4.085076597281184
aF6.954527216853652
aF0.43785827997987764
atp15
a(g1
(lp16
F8.535734835359728
aF8.045399416345933
aF6.191495230411724
aF2.244415287036103
aF13.572047680117713
aF4.465559672966268
aF7.367572660496315
aF0.5095030100651633
atp17
a(g1
(lp18
F8.0390658031855
aF7.575215197779223
aF5.821663434177479
aF2.084691664866246
aF12.462378665972102
aF3.962293759540062
aF6.824842751479775
aF0.40726215232067836
atp19
a(g1
(lp20
F8.30229790879256
aF7.83328978386792
aF6.056686826137179
aF2.2365897984399306
aF13.038598697854532
aF4.413782444864095
aF7.019608936384015
aF0.5408273558339188
atp21
a(g1
(lp22
F8.020241830456287
aF7.560910134923846
aF5.822346000903637
aF2.0993778962579186
aF12.196165166596069
aF3.9837623153062576
aF6.633930155194927
aF0.4468761107025065
atp23
a(g1
(lp24
F7.80313824823678
aF7.3476339053619135
aF5.625856715187259
aF1.9672652095500391
aF11.725838266191356
aF3.612950640195824
aF6.465333436715946
aF0.3386001487498401
atp25
a(g1
(lp26
F8.23566563714876
aF7.764260336547538
aF5.98079225628736
aF2.1680376870758304
aF12.84324062894601
aF4.2084547186245
aF6.974894056063449
aF0.471282857495364
atp27
a(g1
(lp28
F8.08182018187982
aF7.621206124352397
aF5.876305105549392
aF2.122953834550936
aF12.463866151815395
aF4.057344457563929
aF6.769004877116745
aF0.44508974276092145
atp29
a(g1
(lp30
F8.089642376701239
aF7.625735221039122
aF5.869754789928389
aF2.1084711397396156
aF12.346681529704417
aF4.010291935375039
aF6.724263915788634
aF0.4459001996127411
atp31
a(g1
(lp32
F8.12087702975853
aF7.656674786820172
aF5.901318296017922
aF2.1470766523410876
aF12.602483621789636
aF4.117873686651021
aF6.832017591025561
aF0.4510724383864676
atp33
a(g1
(lp34
F8.025990684498776
aF7.565806530202706
aF5.82282962686689
aF2.085434035528367
aF12.391166845250806
aF3.966057854508228
aF6.785452505573878
aF0.426250196332178
atp35
a(g1
(lp36
F8.169705217301399
aF7.700852779986061
aF5.926816360370799
aF2.1333663029326404
aF12.51331227837989
aF4.081303856412565
aF6.7733681924427644
aF0.4392883968462166
atp37
a(g1
(lp38
F7.848467790814159
aF7.394976064768252
aF5.681198142588973
aF2.026573332169457
aF11.922788839462923
aF3.7631524999278168
aF6.5497980660218555
aF0.3870125214832254
atp39
a(g1
(lp40
F8.491183296280713
aF8.013224281278228
aF6.20242955989907
aF2.3038532214237497
aF13.643927699636226
aF4.641801183129458
aF7.325452575556106
aF0.5661530794693312
atp41
a(g1
(lp42
F8.063355154309457
aF7.6006429753028835
aF5.849661215725803
aF2.103733963554184
aF12.42383362989286
aF4.007223053570106
aF6.778355133096684
aF0.433399866995101
atp43
a(g1
(lp44
F7.987642456603033
aF7.525427287041458
aF5.777693643083656
aF2.054159108597941
aF12.190449628065293
aF3.865038533031594
aF6.684541089573792
aF0.40157336233717394
atp45
a(g1
(lp46
F8.44956339645857
aF7.966534276294928
aF6.13786213561949
aF2.221828950947355
aF13.451238504831714
aF4.40929778527873
aF7.310413123991211
aF0.4990864527330755
atp47
a(g1
(lp48
F8.41121357560803
aF7.9328113217341185
aF6.122024150450928
aF2.2392074437428686
aF13.436129180659687
aF4.449389165640859
aF7.289181913653043
aF0.5187233432678495
atp49
a(g1
(lp50
F11.695903816063161
aF11.039253302717965
aF8.548732460854207
aF3.17118510259662
aF22.047817404157158
aF8.498447310340405
aF11.358164762804138
aF1.2570745487167863
atp51
a(g1
(lp52
F11.749077232024328
aF11.08829457489603
aF8.582736514732172
aF3.1735248300651033
aF22.1246167474737
aF8.514040596628217
aF11.375160716012124
aF1.243683895748277
atp53
a(g1
(lp54
F11.728918062863816
aF11.06918798493753
aF8.571473138168068
aF3.19684326003254
aF22.070672961475037
aF8.594577882883929
aF11.32760127380028
aF1.2915741198969133
atp55
a(g1
(lp56
F11.842454857140229
aF11.181445733561985
aF8.674598053170545
aF3.247505723385289
aF22.656662822593333
aF8.863421434763591
aF11.592345767731551
aF1.3333413003868808
atp57
a(g1
(lp58
F11.776100485737567
aF11.114194123560788
aF8.606879707159795
aF3.199724447895269
aF22.337595837970216
aF8.628510674183428
aF11.501619753757973
aF1.2807074437813961
atp59
a(g1
(lp60
F11.727465292343023
aF11.072955233084567
aF8.590169034033169
aF3.2107421370248255
aF22.220150354121014
aF8.668869410570341
aF11.37345057015544
aF1.2960774691103245
atp61
a(g1
(lp62
F11.700028850504282
aF11.041243207872435
aF8.545359515176878
aF3.1715982955604
aF21.972794212832472
aF8.484842562772945
aF11.31479498662424
aF1.2593748063480605
atp63
a(g1
(lp64
F11.716642880911253
aF11.062492593347399
aF8.582878647350432
aF3.2220483828247435
aF22.1727425172832
aF8.710679376121599
aF11.340848433830896
aF1.325467820372257
atp65
a(g1
(lp66
F11.566805083650864
aF10.917532443427932
aF8.457508079858673
aF3.1406312671423846
aF21.58972226258078
aF8.320046442458391
aF11.101884781423223
aF1.2209588647802678
atp67
a(g1
(lp68
F11.839834281116701
aF11.176629058840076
aF8.663381705007739
aF3.2380095398678113
aF22.538966977882914
aF8.807470436683815
aF11.544697159854353
aF1.3271581753451698
atp69
a(g1
(lp70
F11.790965457526887
aF11.121281543720674
aF8.585634851604718
aF3.147886071837967
aF22.0892014278459
aF8.41729236609386
aF11.417459334858615
aF1.2187515929191217
atp71
a(g1
(lp72
F11.603125611003255
aF10.944464940545002
aF8.451690236621076
aF3.1017398598919796
aF21.4513787204057
aF8.168521920649981
aF11.080551632909634
aF1.1778204788428224
atp73
a(g1
(lp74
F11.439758132130304
aF10.797085874892257
aF8.360326439984833
aF3.090619078008594
aF21.08042753377765
aF8.08075939023031
aF10.849576397992626
aF1.173505915965674
atp75
a(g1
(lp76
F11.747935445948752
aF11.085015518827548
aF8.574252081273514
aF3.1711011938996463
aF22.091262862845436
aF8.496651284072414
aF11.380176259586511
aF1.2483496623953678
atp77
a(g1
(lp78
F11.666143548202447
aF11.006514834930115
aF8.508527042966064
aF3.1372038186721913
aF21.66921121628064
aF8.344487445207008
aF11.136045388479209
aF1.2202933335414026
atp79
a(g1
(lp80
F11.585067788729393
aF10.927867720189179
aF8.440738140959336
aF3.104758518375507
aF21.348874790824855
aF8.17293186760702
aF11.000069340167803
aF1.186933929515645
atp81
a(g1
(lp82
F11.679697890060341
aF11.025179366035763
aF8.543559767536928
aF3.178022636756018
aF21.952350965935082
aF8.51193419190858
aF11.261967566995047
aF1.2600098443486931
atp83
a(g1
(lp84
F11.664707600574712
aF11.006765321715706
aF8.516767856803902
aF3.162915702403308
aF21.71262962852919
aF8.436856012717
aF11.130223930268524
aF1.254565919957578
atp85
a(g1
(lp86
F11.478192071182002
aF10.82722444248021
aF8.361306577810598
aF3.059591114548546
aF20.97518887669489
aF7.971888746929237
aF10.82526143197911
aF1.1380337800232803
atp87
a(g1
(lp88
F11.60038809221295
aF10.948389631403108
aF8.478268045942382
aF3.1548420683560106
aF21.590126731594772
aF8.387410694423245
aF11.073394905427342
aF1.24847977789658
atp89
a(g1
(lp90
F11.838143605094418
aF11.170459321111336
aF8.640696181817423
aF3.1973724256290112
aF22.437300748226384
aF8.63868272952027
aF11.564838233419103
aF1.2763362998916865
atp91
a(g1
(lp92
F11.56542278415776
aF10.910316056157319
aF8.429430888034794
aF3.097107230391321
aF21.307460296770937
aF8.144002588284383
aF10.978890841496789
aF1.17575471719686
atp93
a(g1
(lp94
F11.542319055025187
aF10.886376765541874
aF8.403262349099014
aF3.076380052188333
aF21.223035912669783
aF8.047782496237458
aF10.9829255151439
aF1.1555699733516034
atp95
a(g1
(lp96
F11.789818146908429
aF11.128805514326427
aF8.623378594471365
aF3.2169184524280037
aF22.353743472823293
aF8.71123432610563
aF11.46567546178515
aF1.3090161568664764
atp97
a(g1
(lp98
F12.830291295169355
aF12.072670012345725
aF9.230509469933217
aF3.322316289416048
aF25.379116502774675
aF9.421926865118209
aF13.374173599052455
aF1.3691601824509227
atp99
a(g1
(lp100
F12.765414861057058
aF12.00784492533938
aF9.161345971566309
aF3.2351782490027
aF25.037210888876793
aF9.035296050780689
aF13.29737854783054
aF1.2438665376179696
atp101
a(g1
(lp102
F12.78492319417472
aF12.030729569672971
aF9.198392455855226
aF3.2954074279223287
aF25.226508487553627
aF9.29332344272013
aF13.308571964532781
aF1.3237691134763705
atp103
a(g1
(lp104
F12.84827804234363
aF12.09065805363687
aF9.243516714893103
aF3.303063346563572
aF25.510539589492247
aF9.35791188774301
aF13.486611377044587
aF1.3273956863274097
atp105
a(g1
(lp106
F12.8094175321212
aF12.057159377484833
aF9.230072224994325
aF3.3196782119628794
aF25.421121123581095
aF9.414785901587972
aF13.38558905145055
aF1.3532798473760261
atp107
a(g1
(lp108
F12.776558254088277
aF12.021047336060516
aF9.183042482219797
aF3.272972185446857
aF25.13638098650412
aF9.203142562860407
aF13.295636989122963
aF1.3018158569224303
atp109
a(g1
(lp110
F12.740357587553714
aF11.987857687308818
aF9.161495296115762
aF3.271693061937805
aF25.01026453609869
aF9.178461391100646
aF13.207746907167529
aF1.2984526140717885
atp111
a(g1
(lp112
F12.775177622816125
aF12.024358200506624
aF9.202126615186582
aF3.299781851855634
aF25.265612141119913
aF9.320554214354994
aF13.313009456423837
aF1.3269926612971819
atp113
a(g1
(lp114
F12.762062279196778
aF12.008031881718832
aF9.176372054974689
aF3.2826141301326386
aF25.081406498142616
aF9.235287120213313
aF13.24713242313503
aF1.321451051149612
atp115
a(g1
(lp116
F12.809954129934683
aF12.052779543497039
aF9.211774732153055
aF3.3003851731665828
aF25.289681543565496
aF9.324603832703449
aF13.343033974072826
aF1.3328449565562424
atp117
a(g1
(lp118
F12.721205895915878
aF11.965150424445936
aF9.126099972027681
aF3.225790285625778
aF24.808187588501106
aF8.98029524116393
aF13.163420723457396
aF1.2422062792911093
atp119
a(g1
(lp120
F12.693783415615473
aF11.940545937819948
aF9.113817911225043
aF3.2410365770409975
aF24.711553704275442
aF9.034378469034314
aF13.072237428679042
aF1.2731523322242506
atp121
a(g1
(lp122
F12.788132215668975
aF12.030883931008365
aF9.186657255537064
aF3.2655253220140312
aF25.165751361031667
aF9.171443535974882
aF13.329180845816596
aF1.2860429918096343
atp123
a(g1
(lp124
F12.752254366852798
aF12.00160721579395
aF9.182631517645216
aF3.301217381562713
aF25.127495061868878
aF9.311241173798734
aF13.224796000202048
aF1.3373743450027145
atp125
a(g1
(lp126
F12.725424839271971
aF11.97161657320643
aF9.141736812950072
aF3.253904797880641
aF24.895582919529783
aF9.09980170469988
aF13.16327333280835
aF1.2783230778904815
atp127
a(g1
(lp128
F12.758315692747297
aF12.005942220619463
aF9.178911537776239
aF3.2804107027952973
aF25.11833330202357
aF9.227126678134297
aF13.25999148647956
aF1.3080952555697487
atp129
a(g1
(lp130
F12.76869333238319
aF12.011600756660641
aF9.170366075636212
aF3.267074716824779
aF25.0452965371418
aF9.16741193185025
aF13.25121804550324
aF1.2974400900193226
atp131
a(g1
(lp132
F12.67265757683936
aF11.919858900556571
aF9.092624358667681
aF3.2069301569525197
aF24.628174884101373
aF8.885132492926303
aF13.062380921266442
aF1.2131746146755111
atp133
a(g1
(lp134
F12.738296614699994
aF11.980699948439646
aF9.137278370003205
aF3.2324213421109116
aF24.873317609602594
aF9.00918629021652
aF13.196019637639395
aF1.2484708158937508
atp135
a(g1
(lp136
F12.822184451789887
aF12.068924941671671
aF9.239224183755068
aF3.3265266762792134
aF25.469754992227365
aF9.447261736648157
aF13.402321409367737
aF1.3596862657339328
atp137
a(g1
(lp138
F12.790754495505823
aF12.034515150605639
aF9.195808069722775
aF3.290262036744632
aF25.19636392535973
aF9.27419327486636
aF13.308817562764501
aF1.3276898433902913
atp139
a(g1
(lp140
F12.691220175701357
aF11.939953660428042
aF9.119230068523754
aF3.242707443959398
aF24.767516452806564
aF9.036890272620901
aF13.093126588340773
aF1.260243263478839
atp141
a(g1
(lp142
F12.755079038755557
aF12.004425524508916
aF9.187484792817813
aF3.3180161499916876
aF25.12916046620065
aF9.379244643157243
aF13.199803194156829
aF1.3672420928816846
atp143
a(g1
(lp144
F12.852089129850148
aF12.096224730254505
aF9.253833385334575
aF3.308402578492262
aF25.58931443868373
aF9.385982951190433
aF13.51616074717232
aF1.3256575574089795
atp145
a(g1
(lp146
F12.773428143562498
aF12.0186693194462
aF9.184429099476967
aF3.285404146949462
aF25.13222060704261
aF9.248950547359769
aF13.272208354944706
aF1.3204002539356705
atp147
a(g1
(lp148
F12.76792434944171
aF12.015775738944127
aF9.191729720490823
aF3.308916052858204
aF25.161096406637757
aF9.342716731566872
aF13.248770524332768
aF1.354513212848022
atp149
a(g1
(lp150
F12.739954483129647
aF11.986657442472069
aF9.15560729181416
aF3.2485763250252746
aF25.005566793445396
aF9.080954540013925
aF13.237521638176004
aF1.2559725795433783
atp151
a(g1
(lp152
F12.786536638334498
aF12.024851260004628
aF9.16785743223097
aF3.241663424184626
aF25.047603524688505
aF9.063730786413053
aF13.297809873441645
aF1.254510679248392
atp153
a(g1
(lp154
F12.75944618856991
aF12.005384869138148
aF9.17417137412436
aF3.273207063509581
aF25.091666117982474
aF9.193084590447016
aF13.25220567740367
aF1.293230283748632
atp155
a(g1
(lp156
F12.75590870409679
aF11.999317098610817
aF9.159081570679007
aF3.2565199438786387
aF24.987746602183066
aF9.121625484806511
aF13.233691673637443
aF1.2847854739163778
atp157
a(g1
(lp158
F12.701432586171224
aF11.947445713615862
aF9.11592434624374
aF3.223969150840905
aF24.755493329937075
aF8.964881572785476
aF13.12368627731184
aF1.2363303724440993
atp159
a(g1
(lp160
F12.709659977697811
aF11.957471102575497
aF9.134137438704421
aF3.264009716041406
aF24.828675297683382
aF9.133068403011428
aF13.108196233255198
aF1.3003179615107532
atp161
a(g1
(lp162
F12.730254829688324
aF11.974951610959183
aF9.139770727169317
aF3.2455234913831594
aF24.87871028441917
aF9.066621522043317
aF13.171153321613742
aF1.26944897300022
atp163
a(g1
(lp164
F12.716592538401574
aF11.96591623427106
aF9.147410253427038
aF3.2736841689312413
aF24.919629571056404
aF9.183247838141254
aF13.136338120569615
aF1.306453532600306
atp165
a(g1
(lp166
F12.722090787004811
aF11.972022068585332
aF9.152647422578545
aF3.2657880382668436
aF24.971172241284787
aF9.153567624548552
aF13.189825084657912
aF1.292358818145141
atp167
a(g1
(lp168
F12.740272885423051
aF11.98981288716683
aF9.171535476928796
aF3.295465934965872
aF25.051091582281156
aF9.277510950638376
aF13.18790875057375
aF1.331909167675922
atp169
a(g1
(lp170
F12.79003795485638
aF12.028068101663884
aF9.16934534102658
aF3.242768699490963
aF25.048021163493328
aF9.071780141062012
aF13.302365312853537
aF1.2618402966585978
atp171
a(g1
(lp172
F12.810529100825553
aF12.05834375184759
aF9.230769904756901
aF3.315177999180325
aF25.442601585855613
aF9.39779826830429
aF13.403408921666617
aF1.3411562620203235
atp173
a(g1
(lp174
F12.79933847993016
aF12.047284078410035
aF9.222316213299768
aF3.32422892947119
aF25.364036114987023
aF9.42535118334367
aF13.344280222572547
aF1.363619527472515
atp175
a(g1
(lp176
F12.787203752343103
aF12.033610744948094
aF9.203091524931555
aF3.304053502814929
aF25.239154047691493
aF9.336472178583024
aF13.303920320375658
aF1.3438446699181266
atp177
a(g1
(lp178
F12.840583055656223
aF12.082631472157844
aF9.237187507493001
aF3.3114484478680666
aF25.44677632713243
aF9.385050201597538
aF13.431854804853113
aF1.3455258850315333
atp179
a(g1
(lp180
F12.81283964711487
aF12.061430754646961
aF9.237487229187504
aF3.3331939753769033
aF25.461859663034193
aF9.471323699911952
aF13.387330271708034
aF1.3707022029387363
atp181
a(g1
(lp182
F12.801660145332686
aF12.044136813539657
aF9.20001232118389
aF3.284883751004133
aF25.233910722831403
aF9.254501763148939
aF13.343728442771047
aF1.315253882540467
atp183
a(g1
(lp184
F12.805627736180636
aF12.053013093714156
aF9.22433839794154
aF3.308694897436782
aF25.39956745747889
aF9.36676057930681
aF13.383564386432417
aF1.33147817317561
atp185
a(g1
(lp186
F12.830786816104961
aF12.072654043484514
aF9.22388964257525
aF3.285011239138419
aF25.393745619262987
aF9.273812686983286
aF13.443464054792532
aF1.3054575848704235
atp187
a(g1
(lp188
F12.745428525731121
aF11.994081303812361
aF9.169208158477973
aF3.264828499261277
aF25.08807270162242
aF9.157297878284888
aF13.263412493813405
aF1.2778210754150687
atp189
a(g1
(lp190
F12.723338543020716
aF11.969352566524345
aF9.138981934430014
aF3.254487480591654
aF24.864913666057504
aF9.096601493846922
aF13.148361766265346
aF1.283271787840315
atp191
a(g1
(lp192
F12.798709895065125
aF12.043257119356214
aF9.206652849822788
aF3.2936427147848213
aF25.276167393920957
aF9.29480650853379
aF13.339088801852784
aF1.319256699741869
atp193
a(g1
(lp194
F11.683155276126415
aF11.026238016695986
aF8.537255495507436
aF3.17110613136848
aF21.87877053061936
aF8.481130154321486
aF11.228870206726018
aF1.256969142726786
atp195
a(g1
(lp196
F11.618110688171845
aF10.967231857668892
aF8.501073375950314
aF3.1783100855115167
aF21.7065503584933
aF8.48709651756957
aF11.115796078495649
aF1.2807030172015015
atp197
a(g1
(lp198
F11.533063235165962
aF10.883256761226875
aF8.421388472840139
aF3.115244369157309
aF21.302249744763284
aF8.202397106455372
aF10.95760496683591
aF1.201210729687469
atp199
a(g1
(lp200
F11.689061307004994
aF11.022765724710249
aF8.49896798022296
aF3.084231241737229
aF21.665340831570816
aF8.13048172284886
aF11.245224934224405
aF1.1412317841370543
atp201
a(g1
(lp202
F11.677657436929609
aF11.012942639193295
aF8.496897763450239
aF3.1017976668154636
aF21.659081356414706
aF8.194107931102618
aF11.212846913885528
aF1.1675688761346978
atp203
a(g1
(lp204
F11.57226701101483
aF10.919709484452678
aF8.448878729118396
aF3.1317063564659056
aF21.42438223244973
aF8.284916984325287
aF11.002292034723965
aF1.2223254362412248
atp205
a(g1
(lp206
F11.541519289189502
aF10.89434689493643
aF8.442303275800635
aF3.1482071879868716
aF21.417589293475785
aF8.348443809522756
aF10.960021573688499
aF1.245711153345955
atp207
a(g1
(lp208
F11.730905028799672
aF11.068834435116587
aF8.562038492787067
aF3.170009735747805
aF21.953583494333817
aF8.488811638841687
aF11.273438050590586
aF1.254155048236106
atp209
a(g1
(lp210
F11.52515357299137
aF10.871752010997218
aF8.398210470596506
aF3.08683856339919
aF21.206654876689125
aF8.088241774241531
aF10.95585735947829
aF1.1724378271313725
atp211
a(g1
(lp212
F11.73014684729981
aF11.065715238911533
aF8.549622984657397
aF3.1385049103220397
aF21.964024968703285
aF8.365863085953544
aF11.335964957329601
aF1.2009841142162134
atp213
a(g1
(lp214
F11.666686529556051
aF11.007898139793829
aF8.512490867241961
aF3.144956092768505
aF21.801861043938388
aF8.368548436138763
aF11.240546745983819
aF1.2277286683531723
atp215
a(g1
(lp216
F11.745763428457474
aF11.084548959013906
aF8.578649021181882
aF3.173817750005596
aF22.079668734551085
aF8.51112601300887
aF11.34480905441003
aF1.24650420643976
atp217
a(g1
(lp218
F11.800648554542592
aF11.138265758182634
aF8.627998445123408
aF3.2111986950928153
aF22.415857573724058
aF8.684991225811817
aF11.523023718969084
aF1.2932402554695184
atp219
a(g1
(lp220
F11.844374263402281
aF11.184494333290777
aF8.681548547142283
aF3.260587667920289
aF22.673464381940168
aF8.917047672196487
aF11.57928178270891
aF1.353535604771295
atp221
a(g1
(lp222
F11.770342839504218
aF11.107995183921732
aF8.59802755677996
aF3.1914034870444485
aF22.24477148414602
aF8.595041199118278
aF11.449932052254729
aF1.2781212969567177
atp223
a(g1
(lp224
F11.788393997354756
aF11.12700966364745
aF8.620135487356283
aF3.2060849173512587
aF22.349169594275345
aF8.66151134441081
aF11.4717893487811
aF1.2844687634925964
atp225
a(g1
(lp226
F11.734583043809213
aF11.074296118375848
aF8.573285979057863
aF3.1853108264693035
aF22.146874428829072
aF8.555743505825427
aF11.401338458372758
aF1.2689890883705623
atp227
a(g1
(lp228
F11.624201369300454
aF10.969992698996634
aF8.49261349990818
aF3.161533559216112
aF21.71627923422838
aF8.426134850289605
aF11.162424161741937
aF1.260937526347775
atp229
a(g1
(lp230
F11.757286666501024
aF11.090372798915709
aF8.562249212018944
aF3.123487748784642
aF22.07977388750595
aF8.313128049365163
aF11.461371895884769
aF1.178637070074295
atp231
a(g1
(lp232
F11.768160708054353
aF11.105793809860245
aF8.598605442466724
aF3.2023964583852678
aF22.218556027374515
aF8.632687690235434
aF11.409059168080951
aF1.291050450728285
atp233
a(g1
(lp234
F11.528983109620393
aF10.882407949069867
aF8.431157325137223
aF3.1365092353024555
aF21.470514769450105
aF8.302172799912766
aF11.044863122991192
aF1.2332825533370844
atp235
a(g1
(lp236
F11.729276756265199
aF11.070610417424506
aF8.57559323356033
aF3.1951406391100536
aF22.11647515401671
aF8.59013955039251
aF11.356459817371316
aF1.2812458809732792
atp237
a(g1
(lp238
F11.58726656474974
aF10.942238795898927
aF8.496518812112583
aF3.19843673706868
aF21.670230583591334
aF8.569516556787029
aF11.03214853969164
aF1.308915621470153
atp239
a(g1
(lp240
F11.741314226740737
aF11.080098245607685
aF8.574234275143244
aF3.175088441732271
aF22.056347240609647
aF8.514531539661656
aF11.341194636469718
aF1.2570899688575907
atp241
a(g1
(lp242
F8.06048447792188
aF7.5980442843857645
aF5.8483326558034205
aF2.1034740517826602
aF12.424732525799213
aF4.002440473828252
aF6.775015315423081
aF0.4272790449180387
atp243
a(g1
(lp244
F8.066159926434835
aF7.604155671884602
aF5.855295912289532
aF2.1138931651414747
aF12.60767020129919
aF4.05128062867101
aF6.885640064977293
aF0.42961350525400865
atp245
a(g1
(lp246
F8.348785299994798
aF7.877326834013049
aF6.0909362826810165
aF2.246230480460448
aF13.314942559671353
aF4.448582990897385
aF7.184741643587423
aF0.5198296695843756
atp247
a(g1
(lp248
F8.006564821749135
aF7.552982584557428
aF5.834816897894438
aF2.1367389606074414
aF12.412160647048326
aF4.072055510965365
aF6.730933328489175
aF0.45565844569226616
atp249
a(g1
(lp250
F8.424017850023313
aF7.942663599566761
aF6.12112861797348
aF2.224229187639693
aF13.109186793756688
aF4.381080234111803
aF7.072051306465899
aF0.515611285533682
atp251
a(g1
(lp252
F7.929640732065428
aF7.473380482158501
aF5.748216878555324
aF2.066730318634309
aF12.121361312112127
aF3.8951815668690077
aF6.6318614999663135
aF0.4238583479747785
atp253
a(g1
(lp254
F8.285927529547555
aF7.813272774319797
aF6.023344740379364
aF2.1833622409666766
aF12.993428408555442
aF4.2538485642215305
aF7.033833648275237
aF0.4633108391602416
atp255
a(g1
(lp256
F7.939091969247387
aF7.4808728095730395
aF5.747032700070445
aF2.039217284533529
aF12.0764170251961
aF3.819548999551656
aF6.638489952962107
aF0.40119268661725627
atp257
a(g1
(lp258
F8.259548903086776
aF7.786059721431578
aF5.99417625864502
aF2.1597023684379235
aF12.820094921918512
aF4.175112901461018
aF6.9686621805118545
aF0.46137987620608417
atp259
a(g1
(lp260
F8.280687193341048
aF7.802060660850798
aF5.992613553388324
aF2.140748804619174
aF12.73681865684452
aF4.131039674046775
aF6.937457844642906
aF0.45441443636866313
atp261
a(g1
(lp262
F7.745710562930971
aF7.295774548764379
aF5.594928690417228
aF1.9693612281436963
aF11.634689779937439
aF3.6218038330179705
aF6.411453255153248
aF0.3575520553429153
atp263
a(g1
(lp264
F8.204352181363882
aF7.7393524517817
aF5.979290175190553
aF2.199637320622793
aF12.783085419482127
aF4.300515923366742
aF6.8753473197467025
aF0.5057879839191648
atp265
a(g1
(lp266
F8.220581747477684
aF7.750440243705546
aF5.970682627725248
aF2.157246499625925
aF12.85396150307237
aF4.175870297034661
aF7.002507033793228
aF0.4637188649662816
atp267
a(g1
(lp268
F8.228996772046282
aF7.759994316008339
aF5.986679716755022
aF2.1925111922835123
aF12.895044525140646
aF4.280848052495862
aF6.976900067277304
aF0.4964958486141997
atp269
a(g1
(lp270
F8.266370422746537
aF7.792298200639032
aF5.996410124335877
aF2.1477990531488294
aF12.90618114094593
aF4.182848244350027
aF7.03827384199131
aF0.4613555447473763
atp271
a(g1
(lp272
F7.909084007476201
aF7.455926167654574
aF5.73981494421788
aF2.0601642314073603
aF12.189123823688675
aF3.884491722783925
aF6.671956224415751
aF0.4062241337477985
atp273
a(g1
(lp274
F8.476917416046907
aF7.991788359885944
aF6.155090340109878
aF2.226034205127966
aF13.539732899513067
aF4.425163271239004
aF7.368747158808312
aF0.49799527947941624
atp275
a(g1
(lp276
F8.25764089860901
aF7.787801379054297
aF6.0075358642382435
aF2.180301757363523
aF13.162973785982915
aF4.270879758270755
aF7.1596247288438155
aF0.46175293056824257
atp277
a(g1
(lp278
F8.104957296382649
aF7.640621100329493
aF5.884595203131285
aF2.133730742750594
aF12.596452930883446
aF4.106120143783207
aF6.867786213354597
aF0.46250597101066737
atp279
a(g1
(lp280
F8.359573648982238
aF7.880922539547016
aF6.070230314983722
aF2.2007710994705207
aF13.191711179528887
aF4.322180863709568
aF7.161976651418125
aF0.4827175037238688
atp281
a(g1
(lp282
F7.979425050267784
aF7.5193144510148064
aF5.780544106014856
aF2.077514870476367
aF12.322917253875477
aF3.938273932615377
aF6.767247355153523
aF0.42675093855784
atp283
a(g1
(lp284
F8.49274602097072
aF8.003788217762379
aF6.154140429306511
aF2.2111067527092585
aF13.503578146488636
aF4.37718473317618
aF7.357925061993299
aF0.47886874096669885
atp285
a(g1
(lp286
F8.07536098516928
aF7.610297549872947
aF5.849975341157376
aF2.0862226966377273
aF12.543479832407764
aF3.975248683954347
aF6.90412682173738
aF0.42474367425233145
atp287
a(g1
(lp288
F8.329792207947095
aF7.859275705467436
aF6.075043105020268
aF2.2273377961553256
aF13.216792608714378
aF4.388717573423086
aF7.134283730028613
aF0.49983699384752756
atp289
a.