(lp0
(VAl
p1
(lp2
F8.13771833880758
aF7.6731433146159524
aF5.913769803934691
aF2.1427492190655117
aF12.368700939879707
aF4.105220224214459
aF6.671920006387635
aF0.4704849873332222
atp3
a(g1
(lp4
F7.722127092659569
aF7.2756788186039945
aF5.587301374084569
aF1.9828333513933272
aF11.531482528994637
aF3.641242517958623
aF6.303614582058863
aF0.36094665099012413
atp5
a(g1
(lp6
F8.270280204765804
aF7.794482711535991
aF5.9930024596678715
aF2.1445507334344667
aF12.60115750289602
aF4.141234389435427
aF6.812423342044298
aF0.46072069105363195
atp7
a(g1
(lp8
F7.766405323317899
aF7.3166870185065225
aF5.615135427070257
aF1.979892071757736
aF11.493155117965824
aF3.625090064129485
aF6.291558846540724
aF0.3642886171763758
atp9
a(g1
(lp10
F8.009812432289836
aF7.552366656685423
aF5.819229732302124
aF2.095453089188549
aF12.14979384240501
aF3.9486782318717877
aF6.5700549857710415
aF0.41796003155060807
atp11
a(g1
(lp12
F8.031195698215214
aF7.572218270060378
aF5.833244331235944
aF2.0992802536059707
aF12.21601847977913
aF3.9839509018989747
aF6.620515556060822
aF0.4339387483079182
atp13
a(g1
(lp14
F8.119291437645513
aF7.656078612874644
aF5.9019542514228975
aF2.140457228747245
aF12.411846671815045
aF4.102715832089072
aF6.703965023739006
aF0.46573167990797665
atp15
a(g1
(lp16
F8.119189876784343
aF7.65424139820032
aF5.895075979671126
aF2.1322982684714478
aF12.299233218637427
aF4.06888789494511
aF6.650414677446019
aF0.4673828407888924
atp17
a(g1
(lp18
F8.08994576433731
aF7.625407586923349
aF5.865028736064356
aF2.0906912630254486
aF12.24977944603129
aF3.963565747706046
aF6.652802108042305
aF0.42434210545544654
atp19
a(g1
(lp20
F7.708728719932129
aF7.262153231526522
aF5.575376376057936
aF1.9863384271415212
aF11.362841925934143
aF3.6302364009368375
aF6.210333228692712
aF0.3822859806695482
atp21
a(g1
(lp22
F8.009320441487091
aF7.548327535560966
aF5.803340304106011
aF2.069766340638759
aF12.11395439438376
aF3.894836541708482
aF6.588993579119389
aF0.4072889997011052
atp23
a(g1
(lp24
F8.03356324312647
aF7.571093148724051
aF5.821285701150321
aF2.0842553919939184
aF12.134404303340789
aF3.9360080653497733
aF6.604341255869838
aF0.4321409381267131
atp25
a(g1
(lp26
F8.092980061365784
aF7.630278048990955
aF5.878853803030027
aF2.125614022744512
aF12.413851003115402
aF4.063522871755475
aF6.724645800819071
aF0.44484310475691685
atp27
a(g1
(lp28
F8.129419346731135
aF7.6664869462835235
aF5.9129591895763784
aF2.1496922216448104
aF12.535465717649698
aF4.1235668226702415
aF6.778057532519188
aF0.4572216878846396
atp29
a(g1
(lp30
F8.061093627207867
aF7.601850188958858
aF5.863466877709003
aF2.137021072787985
aF12.361214303585665
aF4.073958992679857
aF6.679833317208395
aF0.454607820378487
atp31
a(g1
(lp32
F7.999701625021311
aF7.542143325006992
aF5.810352281778895
aF2.1015638891351593
aF12.207479846491754
aF3.9748383511436582
aF6.614285282706924
aF0.4265076585045973
atp33
a(g1
(lp34
F8.11159999565266
aF7.652929515989406
aF5.914791955829137
aF2.168988344948827
aF12.479760407846298
aF4.164413288900008
aF6.738006747956071
aF0.49085262160523213
atp35
a(g1
(lp36
F8.289450646880633
aF7.82215371468507
aF6.051023924807172
aF2.233275033418559
aF12.924392063642156
aF4.367868576856962
aF6.940156840022819
aF0.5236444590356649
atp37
a(g1
(lp38
F7.928246739775252
aF7.475288267109445
aF5.760381046137597
aF2.0810819475432556
aF11.960916348159163
aF3.89230548907491
aF6.495962287213273
aF0.42824819076153187
atp39
a(g1
(lp40
F8.07507443096114
aF7.615411695743834
aF5.871872084158271
aF2.1130914639208966
aF12.311669468648562
aF4.00642635098994
aF6.676891846594246
aF0.4364715917809422
atp41
a(g1
(lp42
F8.051437519502958
aF7.594339754265603
aF5.862879183740409
aF2.138792029656239
aF12.253293326530075
aF4.067092852807061
aF6.615429651945692
aF0.4679429346910346
atp43
a(g1
(lp44
F8.097914872430094
aF7.635108586240907
aF5.882193826535663
aF2.1197823966682887
aF12.346396522984733
aF4.033077646464942
aF6.674544697949554
aF0.43329699209682054
atp45
a(g1
(lp46
F7.8535735576349675
aF7.3975211774224094
aF5.672740839341319
aF1.998267735254204
aF11.617937121526548
aF3.681279993136868
aF6.353764593517422
aF0.3762812311716401
atp47
a(g1
(lp48
F7.97477756290032
aF7.522255677892651
aF5.809242760299302
aF2.126096241611567
aF11.978942255077829
aF4.022461688821531
aF6.4229947187234515
aF0.46421121824586736
atp49
a(g1
(lp50
F11.426296249836588
aF10.780015221368359
aF8.330927373334166
aF3.0577854523867183
aF20.656316158083154
aF7.931050334272082
aF10.589260711132859
aF1.1410140863650895
atp51
a(g1
(lp52
F11.39050493049279
aF10.750946878569595
aF8.325206088433136
aF3.077726047256719
aF20.704613891320125
aF8.003693465111482
aF10.585885481156149
aF1.159284252873659
atp53
a(g1
(lp54
F11.41913086198526
aF10.77125372865958
aF8.318172189106008
aF3.047602930589714
aF20.634769016099245
aF7.87556311576513
aF10.613958857950585
aF1.1265312845285569
atp55
a(g1
(lp56
F11.399622963874856
aF10.754247228107912
aF8.308311098893043
aF3.0368676386432942
aF20.565632288329542
aF7.839220159929158
aF10.554986115633563
aF1.1074549043319635
atp57
a(g1
(lp58
F11.399106439209866
aF10.75317714180807
aF8.305508080492885
aF3.03737409295803
aF20.594897510098654
aF7.848019609546305
aF10.591293296845263
aF1.11578003899407
atp59
a(g1
(lp60
F11.363616800816924
aF10.729429467070238
aF8.32438001566165
aF3.109627791271131
aF20.711879984454843
aF8.129885382497344
aF10.524635912509995
aF1.2063023310583896
atp61
a(g1
(lp62
F11.492581434504256
aF10.846355774932444
aF8.397568477244329
aF3.1161514751667716
aF21.06707986012244
aF8.191703831274191
aF10.770595178367374
aF1.2109155421437874
atp63
a(g1
(lp64
F11.442388973205171
aF10.79848741290995
aF8.35907249239338
aF3.1019418179120137
aF20.857412773800085
aF8.122341124361427
aF10.651035427807
aF1.1999909701690112
atp65
a(g1
(lp66
F11.538838759607138
aF10.883173814715615
aF8.401021318887858
aF3.073369078197705
aF21.0398314982276
aF8.02916617275888
aF10.824348558720999
aF1.1485974957838883
atp67
a(g1
(lp68
F11.356976478157984
aF10.716977766148275
aF8.291983269808242
aF3.0616854901058432
aF20.564237205627197
aF7.933853109148694
aF10.529721653636816
aF1.15151065131074
atp69
a(g1
(lp70
F11.564797522441454
aF10.909902114001076
aF8.428026903132414
aF3.0859436261305047
aF21.209166464401896
aF8.094169864890304
aF10.907858569989049
aF1.1572278655108177
atp71
a(g1
(lp72
F11.494483793493636
aF10.8449159952426
aF8.383152454301975
aF3.081766226697016
aF21.051363061108876
aF8.062375314229131
aF10.827222456548517
aF1.1633878583358368
atp73
a(g1
(lp74
F11.547573874129075
aF10.894135500901033
aF8.417985600181547
aF3.0861718533377394
aF21.18520268016072
aF8.08471187870792
aF10.904065342734429
aF1.1571229174010103
atp75
a(g1
(lp76
F11.576288874384364
aF10.92316376298233
aF8.44579777407668
aF3.096463695592525
aF21.35415368060407
aF8.13834834216953
aF10.986393104711555
aF1.1583106917081745
atp77
a(g1
(lp78
F11.451435139098544
aF10.805333586587183
aF8.355652728925218
aF3.071710337285093
aF20.906895695383866
aF7.998229629928298
aF10.753008020903605
aF1.1497509069298142
atp79
a(g1
(lp80
F11.418031170811712
aF10.778945653092636
aF8.355582094699816
aF3.1106474347693354
aF20.92260568270087
aF8.151404707844
aF10.681887453210523
aF1.2032632726952437
atp81
a(g1
(lp82
F11.417716498519766
aF10.77335396683253
aF8.331534691534694
aF3.06934612322163
aF20.74862621994447
aF7.975318173725691
aF10.650620206636825
aF1.1546951993091303
atp83
a(g1
(lp84
F11.552179881605996
aF10.905962465785546
aF8.456114499206208
aF3.1585852927049496
aF21.31181912644674
aF8.377880538848895
aF10.844997192215356
aF1.2554193701131218
atp85
a(g1
(lp86
F11.374346535018681
aF10.73469034239645
aF8.309145275519437
aF3.0674020665085084
aF20.6473485098398
aF7.955224492817575
aF10.582665930568222
aF1.1520032600637067
atp87
a(g1
(lp88
F11.397371500118203
aF10.756444851700037
aF8.328733850987906
aF3.0938757415812654
aF20.658212278410254
aF8.065801579809175
aF10.531932453871434
aF1.1943872202902641
atp89
a(g1
(lp90
F11.4457481876657
aF10.799640553171324
aF8.350571155726122
aF3.069598253253783
aF20.73137780004895
aF7.985088712941768
aF10.60477453088952
aF1.1492523850749314
atp91
a(g1
(lp92
F11.45700697251078
aF10.813257221564884
aF8.371530843763662
aF3.0918711978523334
aF20.88120476248317
aF8.077875214343448
aF10.671229352848421
aF1.172603547085589
atp93
a(g1
(lp94
F11.377097420361563
aF10.73321773008814
aF8.295688689286687
aF3.0551009933956625
aF20.462687469594126
aF7.894693485102146
aF10.47440805231068
aF1.1449173297602901
atp95
a(g1
(lp96
F11.29153263825748
aF10.653932978531211
aF8.238552156565518
aF3.0352209025216386
aF20.1769666329703
aF7.803678952744006
aF10.305430992014795
aF1.131256335488029
atp97
a(g1
(lp98
F12.277208169114324
aF11.550434003334395
aF8.821464823977504
aF3.1339817521078928
aF23.012320521229903
aF8.448254338569196
aF12.086588996068079
aF1.1716975844015665
atp99
a(g1
(lp100
F12.323827208667463
aF11.594478672618106
aF8.856933100423843
aF3.157785901790392
aF23.20338071387616
aF8.551780807383617
aF12.184570009538769
aF1.2001106674706528
atp101
a(g1
(lp102
F12.310191170020246
aF11.5836620490512
aF8.854695069558531
aF3.1557585153495604
aF23.21580223605424
aF8.545077505562835
aF12.184943244626547
aF1.189769104025199
atp103
a(g1
(lp104
F12.24840830635334
aF11.522734813504243
aF8.798409979994197
aF3.121577511356527
aF22.887103255867572
aF8.384318349633173
aF12.021663476435315
aF1.155219476808433
atp105
a(g1
(lp106
F12.377252339176305
aF11.643714791127698
aF8.88957050191408
aF3.15148406282733
aF23.413490528513407
aF8.552327479382292
aF12.327565791811503
aF1.17804597944946
atp107
a(g1
(lp108
F12.406331712451658
aF11.671176581355642
aF8.911027468749955
aF3.1632325843962006
aF23.53195620238862
aF8.609066137170224
aF12.394215284472384
aF1.1942501099505323
atp109
a(g1
(lp110
F12.45555925588275
aF11.72327131291574
aF8.972801019410657
aF3.227009287418884
aF23.87551711445279
aF8.892713355104865
aF12.501934986188871
aF1.2719437638063107
atp111
a(g1
(lp112
F12.41508792680467
aF11.681763534597428
aF8.92870391629005
aF3.1896088868722865
aF23.62801773950389
aF8.719547770174641
aF12.404540499979724
aF1.225870150799038
atp113
a(g1
(lp114
F12.445699401734341
aF11.71087179155007
aF8.953000790047378
aF3.20997121986075
aF23.743335713296826
aF8.813466885328483
aF12.453215464964938
aF1.2587110371233061
atp115
a(g1
(lp116
F12.463078309012628
aF11.723215666494195
aF8.946712592092256
aF3.1750444480315743
aF23.728710574266614
aF8.673591336297765
aF12.51184238858833
aF1.2059602866951995
atp117
a(g1
(lp118
F12.476439954925176
aF11.742170085952898
aF8.985065153758944
aF3.2279624686907344
aF23.95104635818798
aF8.898595318220952
aF12.54955318680706
aF1.2662674724155065
atp119
a(g1
(lp120
F12.495206772613978
aF11.757820568699175
aF8.989116174822842
aF3.217544163172705
aF23.974303815350016
aF8.861669330883524
aF12.592827691889736
aF1.2560343341300266
atp121
a(g1
(lp122
F12.419830308520924
aF11.687841880809675
aF8.93777013326079
aF3.1935021896518205
aF23.68845843705436
aF8.740338362663627
aF12.435635691259355
aF1.2277939655998598
atp123
a(g1
(lp124
F12.435979721013531
aF11.700526093782159
aF8.94142845813976
aF3.202231550446925
aF23.671366748129437
aF8.77850896066434
aF12.42413011337192
aF1.2514360825975097
atp125
a(g1
(lp126
F12.417266672434033
aF11.683029315865957
aF8.92453670867962
aF3.1697143125026455
aF23.625178651573552
aF8.639752142315546
aF12.442046570995078
aF1.1976981092044972
atp127
a(g1
(lp128
F12.392412509826125
aF11.658164658555538
aF8.902793978413918
aF3.1670462482381057
aF23.478402912321226
aF8.61811347741253
aF12.348717475644378
aF1.2009086041665642
atp129
a(g1
(lp130
F12.340206046815654
aF11.605015101100623
aF8.845793400089429
aF3.11128199492706
aF23.163950384471427
aF8.374495219414703
aF12.238613872552303
aF1.1333970204318036
atp131
a(g1
(lp132
F12.355443419915293
aF11.618048257668827
aF8.85172890451524
aF3.1100053951638085
aF23.195816379508752
aF8.371015844986273
aF12.268187610440615
aF1.1333115392236128
atp133
a(g1
(lp134
F12.272953765155018
aF11.540403114891182
aF8.790589627586494
aF3.074435993411883
aF22.86120291966284
aF8.204270632821856
aF12.092444391217601
aF1.0904957354583584
atp135
a(g1
(lp136
F12.256446862679686
aF11.524630525260767
aF8.780678488534008
aF3.09325442192813
aF22.76387596927014
aF8.271044631049918
aF12.006503707236707
aF1.1311494519599314
atp137
a(g1
(lp138
F12.27130879130126
aF11.542362190782686
aF8.807885439913747
aF3.12364344963937
aF22.918508581020113
aF8.39939481994772
aF12.045805470706943
aF1.162716863007861
atp139
a(g1
(lp140
F12.287997382985912
aF11.55560421284867
aF8.809030650821812
aF3.1120117594559025
aF22.92354129724417
aF8.353660325273697
aF12.08503966087794
aF1.1522904927095734
atp141
a(g1
(lp142
F12.202655602980423
aF11.476724063760367
aF8.7530188655175
aF3.0930181706451445
aF22.611907947432865
aF8.252246272729508
aF11.90355092345813
aF1.1338134620531255
atp143
a(g1
(lp144
F12.204634841000784
aF11.477060415175933
aF8.748404519238075
aF3.0825772698404177
aF22.592756829263788
aF8.209091265462783
aF11.896814731864072
aF1.1147620516134369
atp145
a(g1
(lp146
F12.212431782923584
aF11.481370905333506
aF8.739124136011615
aF3.053123350972192
aF22.556792917432
aF8.094621324558581
aF11.934609144734104
aF1.078425848436056
atp147
a(g1
(lp148
F12.293839053719335
aF11.559199817320176
aF8.804052582152869
aF3.0936816385720762
aF22.90629160082321
aF8.28258682543969
aF12.1078501233917
aF1.1255485098179965
atp149
a(g1
(lp150
F12.311926259010207
aF11.577809768417904
aF8.822772349866169
aF3.0975559338529433
aF23.038890521392155
aF8.304680838187263
aF12.175549406849411
aF1.1151150850001386
atp151
a(g1
(lp152
F12.23610798764934
aF11.501758359895664
aF8.749963504211426
aF3.0567016609960893
aF22.607301927297424
aF8.106354188118207
aF11.968414011146438
aF1.0801030702607477
atp153
a(g1
(lp154
F12.277847974485846
aF11.540917574640414
aF8.7768447756964
aF3.0534194283576004
aF22.775047134952658
aF8.117619617776773
aF12.091480394965302
aF1.0743946173021883
atp155
a(g1
(lp156
F12.316350565878446
aF11.58035609150096
aF8.819696866617543
aF3.091462668957745
aF23.01551310628267
aF8.280512621537875
aF12.179334700007097
aF1.1105340081547557
atp157
a(g1
(lp158
F12.350536295342124
aF11.615070940451462
aF8.854708152532927
aF3.11309376686326
aF23.22495298879293
aF8.383814049327494
aF12.27399661984541
aF1.1310516080228399
atp159
a(g1
(lp160
F12.341316507071076
aF11.60718522833608
aF8.852558898167862
aF3.1244704764753015
aF23.20645308185404
aF8.423114017752109
aF12.240171786710098
aF1.1462020101415276
atp161
a(g1
(lp162
F12.445735593991031
aF11.706667945757568
aF8.932928021067303
aF3.161562728379724
aF23.666759451049277
aF8.613080494026592
aF12.493804245031372
aF1.1854087402945797
atp163
a(g1
(lp164
F12.430426266009032
aF11.692905291757363
aF8.925711311695348
aF3.17336027547785
aF23.603142636077553
aF8.651383888225704
aF12.432116200721202
aF1.2091964230883834
atp165
a(g1
(lp166
F12.463107932144789
aF11.719380448188586
aF8.926940879189852
aF3.1224956896219918
aF23.65636779033859
aF8.462282856903943
aF12.55678111736087
aF1.1289853346777263
atp167
a(g1
(lp168
F12.483062670615142
aF11.746631163888413
aF8.983644696581072
aF3.226147347670047
aF23.930229284404668
aF8.888268230329375
aF12.54913952977776
aF1.2682999884558521
atp169
a(g1
(lp170
F12.480636064411295
aF11.738195740686058
aF8.949272484879101
aF3.137417846519205
aF23.800553766659498
aF8.529764866239717
aF12.614912002677885
aF1.1366033285578803
atp171
a(g1
(lp172
F12.480791683274271
aF11.741627544944851
aF8.967683347027478
aF3.197700505224044
aF23.839068917256284
aF8.773420322743359
aF12.546747364179799
aF1.2370454090226313
atp173
a(g1
(lp174
F12.486263328675006
aF11.743489906241107
aF8.955515605011929
aF3.1583036055513576
aF23.80159911044315
aF8.615461819220847
aF12.591585088287808
aF1.1762356998735335
atp175
a(g1
(lp176
F12.481238610573218
aF11.740400592302931
aF8.959990165490701
aF3.1789888148183243
aF23.81453250225987
aF8.693926567267406
aF12.565224954715033
aF1.2078554610925225
atp177
a(g1
(lp178
F12.353012821547585
aF11.615286182194518
aF8.847888756466762
aF3.1069984435986537
aF23.167967689643646
aF8.35841149616064
aF12.256482128825521
aF1.1305778383131637
atp179
a(g1
(lp180
F12.443153578439077
aF11.701729774660317
aF8.91925053610289
aF3.1374754105601657
aF23.59221866697048
aF8.514265370153339
aF12.4838721334695
aF1.1527703454508917
atp181
a(g1
(lp182
F12.423626393083024
aF11.683281070230935
aF8.905339056413094
aF3.1388297154493783
aF23.501078721180072
aF8.51325526044744
aF12.43237122533267
aF1.1676541215185743
atp183
a(g1
(lp184
F12.36223991510461
aF11.62261067181008
aF8.848026042572183
aF3.0953828139448625
aF23.179146195163714
aF8.316521172847901
aF12.287645008044514
aF1.1146347418402607
atp185
a(g1
(lp186
F12.267410555452878
aF11.536500440790055
aF8.794677349630936
aF3.1007841975102464
aF22.861820578528484
aF8.30360707381372
aF12.052807260995017
aF1.1320303268638612
atp187
a(g1
(lp188
F12.365486456794233
aF11.628510801253876
aF8.863688272995972
aF3.1206596046573702
aF23.26434964142463
aF8.41708731691407
aF12.289071020767382
aF1.1419569760436952
atp189
a(g1
(lp190
F12.341266739411877
aF11.609201973875566
aF8.861729631820811
aF3.142576242759058
aF23.250795948693472
aF8.500008100923983
aF12.236889209522277
aF1.1727376341655205
atp191
a(g1
(lp192
F12.263981663968892
aF11.530773061129771
aF8.779735991050982
aF3.0727714379439175
aF22.79020158172452
aF8.190816218995819
aF12.060251712467593
aF1.0965247093831756
atp193
a(g1
(lp194
F12.25411985335663
aF11.523184964999457
aF8.781566583387814
aF3.0935054430726776
aF22.776370841005477
aF8.271204661106827
aF12.014579638566325
aF1.1300860382534086
atp195
a(g1
(lp196
F12.306184306761018
aF11.576103112594124
aF8.836652415255745
aF3.1393859624355054
aF23.08452100205625
aF8.47650985005133
aF12.13420439924502
aF1.180179398387485
atp197
a(g1
(lp198
F12.328705278609338
aF11.597084802870857
aF8.852663632923006
aF3.1453643895972307
aF23.179671672915322
aF8.508190533238242
aF12.185923280065289
aF1.183822839343961
atp199
a(g1
(lp200
F12.286336241296356
aF11.551557323350277
aF8.797312667581634
aF3.09788606235435
aF22.857867935509965
aF8.295329610735832
aF12.076667936104757
aF1.1368185531422053
atp201
a(g1
(lp202
F12.376325966977463
aF11.641368743369316
aF8.882420406739993
aF3.1434566485704427
aF23.370388063962675
aF8.511336337351388
aF12.32803914398541
aF1.1720362149901322
atp203
a(g1
(lp204
F12.343644633545491
aF11.614268350210626
aF8.879682790235517
aF3.1926322021305213
aF23.298452490677754
aF8.699455538876574
aF12.183554178083494
aF1.2489182828536696
atp205
a(g1
(lp206
F12.438025224903996
aF11.69838336741122
aF8.920958026775264
aF3.1419340774544082
aF23.608479525002338
aF8.534665106735236
aF12.48988863845559
aF1.162557492949801
atp207
a(g1
(lp208
F12.45331072125419
aF11.712718904196748
aF8.933561190815025
aF3.15851510604575
aF23.6737317093278
aF8.596365016701606
aF12.507140740557801
aF1.179801274635865
atp209
a(g1
(lp210
F12.486379523435906
aF11.748163876183257
aF8.975734853825909
aF3.193418800677331
aF23.911983109664572
aF8.762828725069278
aF12.594187262495295
aF1.2199157679370491
atp211
a(g1
(lp212
F12.456476581436268
aF11.719285939553696
aF8.950429194030294
aF3.1724351672109203
aF23.780289086337696
aF8.664909189899863
aF12.53584334076073
aF1.1903932367346484
atp213
a(g1
(lp214
F12.493134373827965
aF11.752280226005556
aF8.9707045359089
aF3.176463514181971
aF23.891800615537054
aF8.692275791296932
aF12.611837185713542
aF1.1943005343900592
atp215
a(g1
(lp216
F12.51215250321865
aF11.772498463078337
aF8.996480007248689
aF3.218139846111884
aF24.00617404372492
aF8.870604134312142
aF12.626089588198095
aF1.2625092499835098
atp217
a(g1
(lp218
F12.467160014777543
aF11.72631701985897
aF8.948769757494235
aF3.1836913726348968
aF23.72026260862755
aF8.708003447984803
aF12.492204044804286
aF1.2207516861420884
atp219
a(g1
(lp220
F12.516421761959945
aF11.775877496104364
aF8.99512300779233
aF3.201783338324276
aF24.019178018425883
aF8.806600101263697
aF12.654195619419776
aF1.2309647764033882
atp221
a(g1
(lp222
F12.503375379988118
aF11.764578394144257
aF8.992535484826835
aF3.2247312143588647
aF23.973332212312794
aF8.894896856093538
aF12.587160901701028
aF1.2717279662989232
atp223
a(g1
(lp224
F12.468395349701916
aF11.726721539694047
aF8.943224608484252
aF3.157694124669852
aF23.724384548452864
aF8.606092925234956
aF12.53835639634565
aF1.1793336624297486
atp225
a(g1
(lp226
F12.445508257968092
aF11.712166097547444
aF8.959309195777669
aF3.2173301166167283
aF23.790241565237814
aF8.844576861271392
aF12.463384334616945
aF1.262113960986927
atp227
a(g1
(lp228
F12.53332070314461
aF11.795523264412205
aF9.022612854675229
aF3.2242915783818535
aF24.201296387795743
aF8.909147317338318
aF12.721508702961982
aF1.248992573122916
atp229
a(g1
(lp230
F12.47760042923794
aF11.742268509493247
aF8.98302391753767
aF3.233866368356335
aF23.91797464397044
aF8.92399880971919
aF12.525526867918243
aF1.2859937359312101
atp231
a(g1
(lp232
F12.395533375942152
aF11.661741877418086
aF8.905418761056858
aF3.1590650505019293
aF23.512189476700055
aF8.591971941337135
aF12.384192348428273
aF1.1882631324719937
atp233
a(g1
(lp234
F12.367271167203777
aF11.636775326980793
aF8.893802617880192
aF3.1721395943723896
aF23.43199596717955
aF8.63166522110013
aF12.301042235092076
aF1.206629136818496
atp235
a(g1
(lp236
F12.409725224988854
aF11.677744461487706
aF8.929151829852712
aF3.19462613939423
aF23.631379990089595
aF8.741118106962885
aF12.396614106819234
aF1.234895103171942
atp237
a(g1
(lp238
F12.372525948550862
aF11.641443905031144
aF8.896964473292046
aF3.176989657867637
aF23.442448908308855
aF8.652675800110218
aF12.303659243211316
aF1.217014797581264
atp239
a(g1
(lp240
F12.309010013102212
aF11.576804934403013
aF8.829134907083345
aF3.1153419758222576
aF23.072510920582452
aF8.374069924555544
aF12.164463243269504
aF1.13775617187759
atp241
a(g1
(lp242
F12.323853129625506
aF11.596769772353051
aF8.867648182656833
aF3.1742139931717603
aF23.263229044324884
aF8.62708749128689
aF12.178895170522894
aF1.2177683825981112
atp243
a(g1
(lp244
F12.378840616350494
aF11.639657088999583
aF8.864858054408614
aF3.1026211083134374
aF23.283842351673965
aF8.353638661892905
aF12.341509280226553
aF1.118945164415324
atp245
a(g1
(lp246
F12.38847946202286
aF11.65307361625988
aF8.89232066494775
aF3.1467234259916315
aF23.426785549710164
aF8.536648334848277
aF12.34825883379817
aF1.1744212895333883
atp247
a(g1
(lp248
F12.392715952268674
aF11.657429133363129
aF8.898317920096927
aF3.156789769775762
aF23.453443729813678
aF8.575848770134163
aF12.348417767987883
aF1.1860018562754744
atp249
a(g1
(lp250
F12.370136767801586
aF11.635901224381277
aF8.879980137706777
aF3.144706042409534
aF23.361315666831356
aF8.517428126093654
aF12.318458076205816
aF1.173425802391957
atp251
a(g1
(lp252
F12.28483947107742
aF11.553568270265698
aF8.811558471435315
aF3.1213441033049865
aF22.937770131792636
aF8.389688737853445
aF12.072730387349694
aF1.1596178758341589
atp253
a(g1
(lp254
F12.390460091150363
aF11.654094589841067
aF8.889527425104525
aF3.1370386810522435
aF23.419271515609186
aF8.49692206371365
aF12.365839579777804
aF1.1611863725028735
atp255
a(g1
(lp256
F12.453802870788524
aF11.718821224337754
aF8.9622663145241
aF3.2269344510190328
aF23.785220266959133
aF8.881078534848752
aF12.456365522435465
aF1.2812377336052436
atp257
a(g1
(lp258
F12.488549351627423
aF11.75265335461433
aF8.988440074995081
aF3.218630571566685
aF23.9796371218455
aF8.867851374479287
aF12.597634370986642
aF1.2585024117753558
atp259
a(g1
(lp260
F12.371600618379192
aF11.6393219455849
aF8.89245805236897
aF3.1783348871193593
aF23.396093854696822
aF8.653942266121671
aF12.275070981046694
aF1.2227005085585103
atp261
a(g1
(lp262
F12.43374132674099
aF11.692887756451691
aF8.911568017446303
aF3.1319192548796826
aF23.550391400830293
aF8.488649433686053
aF12.473215678355514
aF1.1515210032151075
atp263
a(g1
(lp264
F12.519705224009986
aF11.78086842814208
aF9.008296622947805
aF3.2333855153904585
aF24.073835765401427
aF8.93546351924037
aF12.637010498995625
aF1.2775669436635269
atp265
a(g1
(lp266
F12.492526731885272
aF11.753447872934348
aF8.980193053818533
aF3.2088477030152505
aF23.91040029570073
aF8.826949105343362
aF12.572021828456082
aF1.2495163000797431
atp267
a(g1
(lp268
F12.46016914474866
aF11.720127991441544
aF8.940793839101108
aF3.154105005629369
aF23.72179479724173
aF8.594527299347096
aF12.540568465360758
aF1.1741489787556605
atp269
a(g1
(lp270
F12.45187810911498
aF11.715827264059913
aF8.954425229497147
aF3.2043288413230084
aF23.760810879499658
aF8.789433822277994
aF12.46851726390589
aF1.2410094415091688
atp271
a(g1
(lp272
F12.55198686700356
aF11.807842477158378
aF9.012683894343926
aF3.193116319496767
aF24.131219323965578
aF8.786563465672018
aF12.755497516235726
aF1.2181771365866951
atp273
a(g1
(lp274
F12.43758171963795
aF11.700318122007399
aF8.933529324913863
aF3.1771803926712074
aF23.650161111217876
aF8.676350735783199
aF12.450074166196458
aF1.2112075375234514
atp275
a(g1
(lp276
F12.46963428037898
aF11.733485309489431
aF8.969854231401257
aF3.2035270211231883
aF23.874279623766945
aF8.798403349736969
aF12.54098715858301
aF1.234015779617146
atp277
a(g1
(lp278
F12.532979742574774
aF11.793110553663174
aF9.013884150507664
aF3.2160718161470334
aF24.137376130507874
aF8.873786992816006
aF12.707082392246361
aF1.2471702431390037
atp279
a(g1
(lp280
F12.468488454042722
aF11.731237270762996
aF8.964511740513805
aF3.2048260221551277
aF23.821341958538483
aF8.801100902946445
aF12.51653174001364
aF1.2462535994390493
atp281
a(g1
(lp282
F12.414599414506489
aF11.680423584228368
aF8.923445213980017
aF3.1765229125819316
aF23.60475531367904
aF8.66527261397882
aF12.416327257238184
aF1.2080914804482474
atp283
a(g1
(lp284
F12.496873977170948
aF11.760483127786374
aF8.995211480223727
aF3.223965387378308
aF24.01366566989636
aF8.889007569730289
aF12.60264127489185
aF1.260977228464902
atp285
a(g1
(lp286
F12.484489728912147
aF11.748121187746788
aF8.982894907655355
aF3.2134865823496623
aF23.94800308506498
aF8.84409774479392
aF12.576813458390335
aF1.2477633181649552
atp287
a(g1
(lp288
F12.390613347032144
aF11.654551595159017
aF8.893074564602065
aF3.152719298064384
aF23.420198839487362
aF8.556655059006161
aF12.340798205304385
aF1.1840305629257
atp289
a(g1
(lp290
F12.348292929761227
aF11.611797400599597
aF8.848155193754923
aF3.1069345294575745
aF23.1836632699597
aF8.356838414073843
aF12.256640427932131
aF1.1234480786850338
atp291
a(g1
(lp292
F12.322080561377934
aF11.587470937122069
aF8.8314839052476
aF3.1086769330396304
aF23.071253165450674
aF8.354513797554489
aF12.182521469571416
aF1.1354351459794572
atp293
a(g1
(lp294
F12.423055714411793
aF11.686495188510467
aF8.92318683356306
aF3.171142691908144
aF23.597840181415247
aF8.642695463036018
aF12.418703160182618
aF1.1973929326510058
atp295
a(g1
(lp296
F12.455917176453612
aF11.71887119783143
aF8.949793595254476
aF3.173325183215033
aF23.775728755489975
aF8.670293779113374
aF12.53693900605246
aF1.196991574240849
atp297
a(g1
(lp298
F12.386153652526948
aF11.64294013184614
aF8.852984280259419
aF3.067061601068958
aF23.240595292496238
aF8.212990466797631
aF12.378991520966656
aF1.0688640372167848
atp299
a(g1
(lp300
F12.34577953625509
aF11.6075880803241
aF8.837745295437761
aF3.0916453018803516
aF23.123068693863207
aF8.294531975170166
aF12.25525667906735
aF1.1104961400409454
atp301
a(g1
(lp302
F12.509805650330549
aF11.767219481419668
aF8.98075551616879
aF3.1889944332071747
aF23.933215737299587
aF8.744420926527486
aF12.628955077720455
aF1.2195501991156301
atp303
a(g1
(lp304
F12.530338969245815
aF11.79184000426234
aF9.01818367779177
aF3.223289476078575
aF24.173615924983768
aF8.895793037721344
aF12.705175676335635
aF1.2427655626345964
atp305
a(g1
(lp306
F12.420239903711597
aF11.680537774163724
aF8.906888354707354
aF3.1543615613497415
aF23.489473977173663
aF8.569770993826344
aF12.39428076374342
aF1.188878899562249
atp307
a(g1
(lp308
F12.361229610077018
aF11.624601971683461
aF8.86291211099733
aF3.1384144891742767
aF23.224066971471625
aF8.483909395555294
aF12.24400175453185
aF1.1770026687523136
atp309
a(g1
(lp310
F12.521583756910434
aF11.77409868435105
aF8.96919915777175
aF3.1506832128329423
aF23.87757257027371
aF8.594420958117723
aF12.668651440957335
aF1.168602002549961
atp311
a(g1
(lp312
F12.558407576322002
aF11.81756576868413
aF9.03517219787419
aF3.2292450914890938
aF24.255455734781755
aF8.934133976587418
aF12.76108367291634
aF1.2591947051752028
atp313
a(g1
(lp314
F12.374719287310509
aF11.634589471087198
aF8.857183582674711
aF3.0899344520622445
aF23.252591756204964
aF8.29632405498644
aF12.33592354357634
aF1.0945731499227445
atp315
a(g1
(lp316
F12.387788503836273
aF11.648108430994707
aF8.872900861840641
aF3.1184317048599897
aF23.310583223685523
aF8.41878690126678
aF12.344293827261078
aF1.1491694691536873
atp317
a(g1
(lp318
F12.469491911184113
aF11.72837375731225
aF8.946391453196972
aF3.161557929415079
aF23.74309372678168
aF8.621514328952905
aF12.54543202309126
aF1.1844400345041335
atp319
a(g1
(lp320
F12.459089183976818
aF11.721615345105977
aF8.952482595293507
aF3.1797847985869985
aF23.78160290568798
aF8.69406894912587
aF12.528663549725293
aF1.2012551566078007
atp321
a(g1
(lp322
F12.394300873270756
aF11.65567326413274
aF8.884193573239102
aF3.128178892494916
aF23.383588400672064
aF8.457720786464145
aF12.363317319012435
aF1.1500510776249548
atp323
a(g1
(lp324
F12.43289007254828
aF11.693489671909656
aF8.919701398669545
aF3.1575035394694795
aF23.576698135718278
aF8.589144448673942
aF12.44117924085808
aF1.1859839736440227
atp325
a(g1
(lp326
F12.387551633736576
aF11.647741375770252
aF8.872093443970266
aF3.11382825831735
aF23.311130100043876
aF8.3963646002731
aF12.342671928270574
aF1.1354140546243805
atp327
a(g1
(lp328
F12.37316784957406
aF11.632690254166402
aF8.854173851356553
aF3.0907962460640555
aF23.223745506604022
aF8.299886405166873
aF12.326116412353823
aF1.1050604885707744
atp329
a(g1
(lp330
F12.402870792307926
aF11.66593334450232
aF8.901208312924433
aF3.1595205096518795
aF23.45304896609979
aF8.59001049103015
aF12.354792221992048
aF1.1984960840473775
atp331
a(g1
(lp332
F12.405370349657673
aF11.666072015835816
aF8.89282327292984
aF3.1370449528590543
aF23.418717982785783
aF8.497860650698051
aF12.372183240348608
aF1.1639444143615711
atp333
a(g1
(lp334
F12.33799435655509
aF11.600959285959515
aF8.836777539950777
aF3.105222319331426
aF23.095275896164253
aF8.34533310474386
aF12.211001613383566
aF1.1330590924140722
atp335
a(g1
(lp336
F12.351340002148198
aF11.614253196189566
aF8.848627287505131
aF3.1048856611580624
aF23.184445393495658
aF8.349019025424335
aF12.263439126644199
aF1.1226730864271204
atp337
a(g1
(lp338
F12.353326088328503
aF11.62279822946412
aF8.881026523368888
aF3.170443324023481
aF23.338524896113054
aF8.62107000143619
aF12.244087311941563
aF1.214067068224986
atp339
a(g1
(lp340
F12.383762379914481
aF11.651630646783913
aF8.903337525040271
aF3.1764370179874684
aF23.47205591876112
aF8.655812283817783
aF12.320520085511937
aF1.2147412754002622
atp341
a(g1
(lp342
F12.374081252177813
aF11.638034573831797
aF8.875102585181102
aF3.128124853655173
aF23.331735419848254
aF8.455138417608769
aF12.317043184132867
aF1.149663740528477
atp343
a(g1
(lp344
F12.36758857665035
aF11.631091147980731
aF8.868732497192077
aF3.1324091581968827
aF23.28156660721952
aF8.466011734681375
aF12.284356624373792
aF1.161122702308048
atp345
a(g1
(lp346
F12.426959581094811
aF11.691442049486964
aF8.92943973016291
aF3.1757240092203385
aF23.64047699629588
aF8.667120504889308
aF12.445991443046625
aF1.20805062404037
atp347
a(g1
(lp348
F12.308847340528937
aF11.580540973800032
aF8.845576598438043
aF3.1439465696516624
aF23.155599410664063
aF8.497686072663413
aF12.166457159734975
aF1.1791193561891669
atp349
a(g1
(lp350
F12.425772564166234
aF11.692451625607664
aF8.938411038623208
aF3.1908791819293136
aF23.690495785788954
aF8.73270009457253
aF12.441066249759535
aF1.2247787013584377
atp351
a(g1
(lp352
F12.518503564985286
aF11.78456069769884
aF9.025053868077398
aF3.243411305736797
aF24.207251124791416
aF8.988574175675664
aF12.68803937021483
aF1.2775496811029132
atp353
a(g1
(lp354
F12.422642351042615
aF11.687447178374228
aF8.92846608655186
aF3.188620016784933
aF23.61267014831546
aF8.716339345092159
aF12.411108442389168
aF1.2343711478603563
atp355
a(g1
(lp356
F12.26263546309996
aF11.534315234809347
aF8.802754292261756
aF3.125014958635327
aF22.888619699739937
aF8.400076033210112
aF12.023774398476554
aF1.1642083749013563
atp357
a(g1
(lp358
F12.39475121107083
aF11.661195126544948
aF8.908635181507298
aF3.1795199017019438
aF23.497819205520003
aF8.669920548615957
aF12.340887923154686
aF1.2202067119197626
atp359
a(g1
(lp360
F12.578444384465147
aF11.836338679285468
aF9.046931574032275
aF3.2223407351269753
aF24.339841383911093
aF8.920049343333273
aF12.834878496993301
aF1.2485744145880155
atp361
a(g1
(lp362
F12.36827837194202
aF11.637307983725133
aF8.893392873238081
aF3.1745130608523535
aF23.424590755145076
aF8.642574224896176
aF12.296019034301244
aF1.2131518123986222
atp363
a(g1
(lp364
F12.247461575884142
aF11.516104557189013
aF8.772844120423413
aF3.0835999374958316
aF22.73164572286486
aF8.229468448708909
aF12.002266719589947
aF1.1186869413465257
atp365
a(g1
(lp366
F12.361626211311775
aF11.630305538747626
aF8.884839564470047
aF3.16204545523242
aF23.376063882459157
aF8.590055965632331
aF12.282678068109945
aF1.1964719094740732
atp367
a(g1
(lp368
F12.493308853904347
aF11.758014290826463
aF8.99609752028107
aF3.227085289259801
aF24.016853192479775
aF8.906252322103668
aF12.596658599947558
aF1.2652994155555009
atp369
a(g1
(lp370
F12.33898502750937
aF11.609269126718988
aF8.868239742399668
aF3.1504556852872754
aF23.29574560213409
aF8.531971014250596
aF12.252220899370503
aF1.1794197096002363
atp371
a(g1
(lp372
F12.31557286975414
aF11.583273170243402
aF8.835995032140533
aF3.125438934580376
aF23.09332078504953
aF8.421852039331233
aF12.164485210366268
aF1.1568331347553764
atp373
a(g1
(lp374
F12.381149489265821
aF11.64652142977244
aF8.887038514211431
aF3.1382314236166544
aF23.408150070985045
aF8.500512713245831
aF12.352430684732733
aF1.1618192206628768
atp375
a(g1
(lp376
F12.392156119986954
aF11.66154509507483
aF8.918194923578522
aF3.1973306358451565
aF23.552832154334755
aF8.744448735037682
aF12.347888445663598
aF1.246470517646326
atp377
a(g1
(lp378
F12.355636237497365
aF11.620333619111303
aF8.860855512256755
aF3.1293227282245573
aF23.236799377463978
aF8.452437280342949
aF12.26430636002845
aF1.1644099134435342
atp379
a(g1
(lp380
F12.39652327327425
aF11.662966094695037
aF8.911611948574613
aF3.193058400444607
aF23.487345213543147
aF8.72663629274572
aF12.315963640750047
aF1.247932230607973
atp381
a(g1
(lp382
F12.352022456261837
aF11.619384889475544
aF8.869737346909053
aF3.14268507949839
aF23.294754549431964
aF8.50557545975338
aF12.258404034033939
aF1.166973039107958
atp383
a(g1
(lp384
F12.300465789875428
aF11.569158644728834
aF8.824672343609057
aF3.1133610444283955
aF23.04185599021676
aF8.367569878677317
aF12.1418962958522
aF1.1347492847502276
atp385
a(g1
(lp386
F11.440606463849475
aF10.797624087251961
aF8.360935323254983
aF3.098627489697821
aF20.866737269751532
aF8.103374050834026
aF10.648521142688452
aF1.1841609567757827
atp387
a(g1
(lp388
F11.500108871727443
aF10.85029251889235
aF8.389463747861962
aF3.0948183916151772
aF20.974041825917034
aF8.104553242184483
aF10.740361781701365
aF1.182422183808555
atp389
a(g1
(lp390
F11.53954503240165
aF10.887113915722992
aF8.416564641892418
aF3.1063265372907205
aF21.13822914751484
aF8.164342437572108
aF10.840464074051862
aF1.196765531437726
atp391
a(g1
(lp392
F11.532221622499435
aF10.87764674349627
aF8.398855110739119
aF3.0783042476683007
aF21.096317410984803
aF8.040847318583785
aF10.875754260747074
aF1.1567535326663974
atp393
a(g1
(lp394
F11.379947900161199
aF10.736065990157854
aF8.296409780194576
aF3.042046799158764
aF20.542645453240148
aF7.859285593252566
aF10.53936713408907
aF1.1204446395267171
atp395
a(g1
(lp396
F11.411234855616303
aF10.763625396502857
aF8.309380894730863
aF3.028777975938521
aF20.62730061103612
aF7.814652857722096
aF10.628812338443739
aF1.1016705758434808
atp397
a(g1
(lp398
F11.551089918962722
aF10.902794139066273
aF8.446943592298615
aF3.1498974808337468
aF21.331289673447447
aF8.350227684176557
aF10.889091081403079
aF1.2505668764854765
atp399
a(g1
(lp400
F11.646514052345058
aF10.992478451734677
aF8.514507811556054
aF3.1688518433856774
aF21.6561867780247
aF8.455647857235114
aF11.057902195687602
aF1.2582574371481046
atp401
a(g1
(lp402
F11.3126811569366
aF10.668348142209098
aF8.228173506123193
aF2.9881552846858397
aF20.150696381583913
aF7.629600741451533
aF10.36791955250655
aF1.0648519615900702
atp403
a(g1
(lp404
F11.346798058734983
aF10.702449539053324
aF8.26150827523721
aF3.0049482909952023
aF20.330527697718082
aF7.694995854209003
aF10.442676264662587
aF1.0666626083797839
atp405
a(g1
(lp406
F11.424563617465376
aF10.781293466057363
aF8.34318579089289
aF3.083451774063329
aF20.817979362072826
aF8.0405701216815
aF10.663045132928989
aF1.1739382233038793
atp407
a(g1
(lp408
F11.488589125225214
aF10.840833845843726
aF8.385946269212425
aF3.0920310758769864
aF21.03579924416193
aF8.101933001202857
aF10.783354441441444
aF1.1735927466470146
atp409
a(g1
(lp410
F11.378373998619752
aF10.729271659059398
aF8.273315709357373
aF3.007606736111603
aF20.385268957577477
aF7.708509168267353
aF10.50491591339853
aF1.0787405036211386
atp411
a(g1
(lp412
F11.248589878901484
aF10.613251496267758
aF8.20603596070901
aF3.017408157575855
aF20.081362059900467
aF7.71816299690921
aF10.285532156842883
aF1.111062916608285
atp413
a(g1
(lp414
F11.44224400329632
aF10.797414871918509
aF8.354013996545408
aF3.085362847537868
aF20.847894030431043
aF8.053575598072069
aF10.67173890610517
aF1.1724890098536829
atp415
a(g1
(lp416
F11.438904438183576
aF10.794363022555027
aF8.35213044796596
aF3.087850844000192
aF20.871783729123354
aF8.063879731528624
aF10.693279672250874
aF1.1794204481065842
atp417
a(g1
(lp418
F11.542642313946201
aF10.891232740960069
aF8.423511392064906
aF3.1076134481215685
aF21.14221591925039
aF8.161450717010487
aF10.82834885065688
aF1.189967047733611
atp419
a(g1
(lp420
F11.434934118560735
aF10.793932842301684
aF8.364347638105569
aF3.1090588185446517
aF20.875528647483637
aF8.1431216351879
aF10.635477195892046
aF1.1977033194423692
atp421
a(g1
(lp422
F11.508920720280639
aF10.861634199171343
aF8.406576917119635
aF3.1012529177240324
aF21.093724706173745
aF8.137197873485068
aF10.797742809210286
aF1.179322254136327
atp423
a(g1
(lp424
F11.324572971307033
aF10.689062585769909
aF8.282619385043922
aF3.0920329710568084
aF20.46285817454501
aF8.046835604774811
aF10.406501312087745
aF1.203905330828698
atp425
a(g1
(lp426
F11.447460699721317
aF10.800534583052336
aF8.346158325658445
aF3.0469200986615665
aF20.822000419327555
aF7.903742786484768
aF10.712229680785109
aF1.1119372572446198
atp427
a(g1
(lp428
F11.472852666296482
aF10.823764346647655
aF8.36403516005999
aF3.0667717971775974
aF20.874452414178737
aF7.9838361746149795
aF10.725252629021377
aF1.1443260249077534
atp429
a(g1
(lp430
F11.448037389350375
aF10.801410014672859
aF8.350729519518252
aF3.06791041848033
aF20.75054731339286
aF7.97965822441278
aF10.62389909680762
aF1.1473582471382984
atp431
a(g1
(lp432
F11.380960613210956
aF10.734226237948814
aF8.28525411732582
aF3.0239486304558714
aF20.45556001750833
aF7.781667195175007
aF10.521837155411728
aF1.1013650818552252
atp433
a(g1
(lp434
F7.870625988449134
aF7.413891283689979
aF5.687305006441384
aF2.010403088287568
aF11.656387315178117
aF3.710604178673621
aF6.3592643660374355
aF0.38053883483491713
atp435
a(g1
(lp436
F7.876515725834391
aF7.427567785871985
aF5.728544778902862
aF2.082214473763352
aF11.822823293457974
aF3.9002933672047817
aF6.383569698795724
aF0.43534972208720196
atp437
a(g1
(lp438
F8.230732626911509
aF7.763767962275512
aF5.995661440744034
aF2.1956700989879727
aF12.629543593783435
aF4.24953104032971
aF6.800033392988718
aF0.5123526754241291
atp439
a(g1
(lp440
F7.867860400986324
aF7.412240557639677
aF5.689217733982952
aF2.013900734547827
aF11.722682316296835
aF3.7153215120712417
aF6.423115965048206
aF0.3846598117438411
atp441
a(g1
(lp442
F8.092625362637001
aF7.629159515801968
aF5.873906823541421
aF2.111404923619772
aF12.340946087403022
aF4.02977187527409
aF6.678275236275171
aF0.4376147170078952
atp443
a(g1
(lp444
F8.054919290500049
aF7.592530683589142
aF5.842583157959256
aF2.0969486077198005
aF12.139911076281683
aF3.9705854430370886
aF6.571312990984121
aF0.4369328472988979
atp445
a(g1
(lp446
F8.33257800829353
aF7.857966389909717
aF6.059751543807996
aF2.1986724602150396
aF12.912056990874229
aF4.287773292283346
aF6.9635805505031465
aF0.492019592705919
atp447
a(g1
(lp448
F8.509100297092822
aF8.025930530140695
aF6.194596991907356
aF2.2585837337598935
aF13.406309663620274
aF4.507511537662535
aF7.205669567575516
aF0.5314145725196909
atp449
a(g1
(lp450
F7.87586529887392
aF7.426065844237845
aF5.722636031449661
aF2.063831158655919
aF11.778661822490365
aF3.863905922528909
aF6.372030879903269
aF0.426640231238617
atp451
a(g1
(lp452
F7.6594670423530875
aF7.214396960710382
aF5.531430317188657
aF1.9457309770747038
aF11.01951300628306
aF3.505591309680326
aF6.003283448916832
aF0.35471924834500834
atp453
a(g1
(lp454
F7.710140584415841
aF7.264655929047627
aF5.579027891375931
aF1.9732767698604445
aF11.403345866531101
aF3.6000340604059966
aF6.224165666671845
aF0.35348726441551304
atp455
a(g1
(lp456
F8.008098147113495
aF7.5521934223563685
aF5.824732367169747
aF2.1102658123104296
aF12.257039826553571
aF4.019983550707974
aF6.648104013200627
aF0.45176238283057457
atp457
a(g1
(lp458
F8.081742850884236
aF7.615081803406828
aF5.848761223172826
aF2.078435505554424
aF12.086297073146198
aF3.9167206237086902
aF6.558171380792883
aF0.42080620559860776
atp459
a(g1
(lp460
F7.61996879307763
aF7.176722759964876
aF5.501566362180386
aF1.936186109316681
aF10.933513146653134
aF3.474317682772245
aF5.965832356832388
aF0.3542159954203703
atp461
a(g1
(lp462
F7.854050326365393
aF7.403707485397838
aF5.699715291598918
aF2.054972494392934
aF11.670912878289464
aF3.812410103265543
aF6.305484328179811
aF0.4096369435365391
atp463
a(g1
(lp464
F8.042272586901941
aF7.581352319095935
aF5.837026789136701
aF2.10391440893623
aF12.193534348668203
aF3.9852873423896154
aF6.596929219898784
aF0.4335243162200408
atp465
a(g1
(lp466
F8.151783078632423
aF7.684953771457163
aF5.917182521035943
aF2.1309242596439635
aF12.42714589610325
aF4.082635978574379
aF6.717215317554805
aF0.4511510495922014
atp467
a(g1
(lp468
F8.094141876343274
aF7.631066075816372
aF5.877889115963863
aF2.124988271313885
aF12.266490753645593
aF4.045266263385937
aF6.613940094598969
aF0.4457378001851707
atp469
a(g1
(lp470
F7.963314234089004
aF7.508489679734481
aF5.786226729564851
aF2.0908652455562007
aF12.071850597562296
aF3.940476400647186
aF6.538488684818083
aF0.4296360532076317
atp471
a(g1
(lp472
F7.904595780821253
aF7.4499458181780875
aF5.72701804602463
aF2.030640286434463
aF11.943487251655004
aF3.794109928069422
aF6.533217483526646
aF0.39247117204622994
atp473
a(g1
(lp474
F8.084657752251058
aF7.623693132574235
aF5.877063886519456
aF2.1294293367972914
aF12.258528295504949
aF4.055200257316579
aF6.612859126568393
aF0.4581371272785445
atp475
a(g1
(lp476
F7.807943976798101
aF7.35882051856932
aF5.65828600500324
aF2.012956605438366
aF11.70968975595607
aF3.7176523758122983
aF6.397067730172787
aF0.37823640804551756
atp477
a(g1
(lp478
F8.346291746203486
aF7.8754484533942515
aF6.090266185999703
aF2.240428541836463
aF12.96522841844938
aF4.39854109014602
aF6.939273310205837
aF0.5258493747499243
atp479
a(g1
(lp480
F7.878694940576614
aF7.43142459658729
aF5.7378651320949565
aF2.0898574418602602
aF11.871667251261611
aF3.9199457423531365
aF6.401781740246961
aF0.43622264378492415
atp481
a.