(lp0
(VAl
p1
(lp2
F8.417528294516629
aF7.934522347712124
aF6.107696104175131
aF2.211467723284899
aF13.369861448041505
aF4.36208497576311
aF7.272814021440831
aF0.4836590869292836
atp3
a(g1
(lp4
F8.009001156908793
aF7.55011510025831
aF5.813972005686995
aF2.0947912117863723
aF12.549340006348263
aF3.998517086324985
aF6.882391859614191
aF0.4214543790884766
atp5
a(g1
(lp6
F8.400877812899253
aF7.92483542529116
aF6.121439758210183
aF2.2425629401365814
aF13.398099950658986
aF4.459093080010226
aF7.242174122147665
aF0.5184834935670251
atp7
a(g1
(lp8
F7.883812700675383
aF7.428963001442266
aF5.708814830236557
aF2.0377291932149952
aF12.134690566437477
aF3.829163722503247
aF6.682469623208747
aF0.399591299882034
atp9
a(g1
(lp10
F8.198053671401782
aF7.726652973656287
aF5.944315560668775
aF2.1394666275315353
aF12.806363370745109
aF4.139520621106497
aF6.9831679323377704
aF0.4482362961043191
atp11
a(g1
(lp12
F8.223987909998659
aF7.753550627230149
aF5.972602105175576
aF2.1555402939659607
aF12.87868004064792
aF4.188659952222716
aF7.0081752364146865
aF0.4627224231972717
atp13
a(g1
(lp14
F8.280695340794596
aF7.803859799409835
aF6.001449921665426
aF2.1585584174751737
aF12.958724003010085
aF4.196269585434867
aF7.061121638510148
aF0.45781460689896675
atp15
a(g1
(lp16
F8.244538928158816
aF7.769574601182833
aF5.973203616009278
aF2.1405543200416757
aF12.884594702761605
aF4.162648267207514
aF7.027314284442253
aF0.45114246788805934
atp17
a(g1
(lp18
F8.20292462390442
aF7.728956658839862
aF5.9367557218858185
aF2.1165555976790422
aF12.725067649336541
aF4.083541335648738
aF6.955266701940483
aF0.43649494035263237
atp19
a(g1
(lp20
F8.07256287816691
aF7.609797006472768
aF5.858627511928928
aF2.1059557641000786
aF12.462185380550814
aF4.0272236560680525
aF6.7909130902037536
aF0.43642776158541213
atp21
a(g1
(lp22
F8.116358094394245
aF7.650298228301928
aF5.889083627087343
aF2.1316470852053886
aF12.526292172788308
aF4.089888039641839
aF6.810177066257567
aF0.45643427874524534
atp23
a(g1
(lp24
F8.174854687395904
aF7.701975380829169
aF5.914711066167858
aF2.108380986790467
aF12.691112133749211
aF4.0560576364657255
aF6.944793959414081
aF0.4306596249697028
atp25
a(g1
(lp26
F8.224266925408852
aF7.751214829110262
aF5.962921201252192
aF2.148292428040276
aF12.858455306351004
aF4.167527752118761
aF7.033349773885766
aF0.4684847220202166
atp27
a(g1
(lp28
F8.202521424440379
aF7.736673776446109
aF5.972326636428525
aF2.1794822985039803
aF12.85543991384149
aF4.2500977958378225
aF6.964117607608805
aF0.4891775075085229
atp29
a(g1
(lp30
F8.108262021056232
aF7.643907072074551
aF5.886078815444651
aF2.1207489339227568
aF12.676056937434426
aF4.074555206656673
aF6.917815029325239
aF0.4341779300752226
atp31
a(g1
(lp32
F8.412031350750533
aF7.927935344699124
aF6.097009923077691
aF2.1913593822698467
aF13.390843793816618
aF4.320519072425028
aF7.30465711087475
aF0.46569394394581304
atp33
a(g1
(lp34
F8.458114177560846
aF7.9759140177781065
aF6.150544158838386
aF2.242515759561178
aF13.587067136259705
aF4.480604683129437
aF7.394674473028149
aF0.5255469545315167
atp35
a(g1
(lp36
F8.269708847618958
aF7.799220634133687
aF6.016278509937377
aF2.1802396388628797
aF13.178093589482687
aF4.279929871537829
aF7.1760281323759365
aF0.4694751217030883
atp37
a(g1
(lp38
F8.225964797024096
aF7.752675969778297
aF5.961408748648415
aF2.1321169484402778
aF12.943533071322548
aF4.134543899372049
aF7.0905952599534015
aF0.4394229831072771
atp39
a(g1
(lp40
F8.083893915352213
aF7.621069602459468
aF5.8707934133928035
aF2.1278625143857886
aF12.762042781906631
aF4.101032307062507
aF6.969682968933474
aF0.4335359374426435
atp41
a(g1
(lp42
F8.360518662617931
aF7.8784046390176545
aF6.05521857959377
aF2.1719845776226627
aF13.371372309036925
aF4.259022028156197
aF7.335507786960504
aF0.449889494093082
atp43
a(g1
(lp44
F8.429848091733769
aF7.9499310791552205
aF6.134056806977579
aF2.246195567055031
aF13.55498271264012
aF4.483581785705249
aF7.354184184515339
aF0.517612886801528
atp45
a(g1
(lp46
F8.261537981609035
aF7.790861731379761
aF6.008056890376964
aF2.1817754013682653
aF13.04325044701044
aF4.264056420567925
aF7.11057670134305
aF0.4904341549084264
atp47
a(g1
(lp48
F8.194378687635863
aF7.725713648821173
aF5.952800161645216
aF2.1640330069461626
aF12.87242020453665
aF4.196785440869901
aF7.005477354747041
aF0.4650950980452253
atp49
a(g1
(lp50
F11.756270236891265
aF11.092484843148034
aF8.578992569084138
aF3.170735388802915
aF22.193766936055724
aF8.497773549382535
aF11.46582236952657
aF1.2444866252907243
atp51
a(g1
(lp52
F11.833883802302765
aF11.172531753167705
aF8.666446316503926
aF3.2527354992688173
aF22.689057582258496
aF8.87925344347223
aF11.638652134946474
aF1.3503793204417232
atp53
a(g1
(lp54
F11.954425818623971
aF11.281994603821252
aF8.732887750070494
aF3.23507760039567
aF23.011459351963833
aF8.843979041030348
aF11.875667040783766
aF1.3035577536578344
atp55
a(g1
(lp56
F11.737365228862329
aF11.079409085396598
aF8.585118032957233
aF3.1978870502075964
aF22.193208717836182
aF8.623381651091323
aF11.387869575767992
aF1.2864237351380197
atp57
a(g1
(lp58
F11.77911097329571
aF11.114150944948424
aF8.596438664408632
aF3.1807023820220373
aF22.272939840434073
aF8.55660538290108
aF11.48649493273307
aF1.2579218406025598
atp59
a(g1
(lp60
F11.708527401429999
aF11.051041855612771
aF8.559000466145102
aF3.181592071681165
aF22.153283282097814
aF8.550045017426154
aF11.415377620506307
aF1.268597490590059
atp61
a(g1
(lp62
F11.89804432350224
aF11.228903567600032
aF8.692076817624429
aF3.217353544378525
aF22.81549271237273
aF8.756094266288274
aF11.770596953817787
aF1.2839983465897555
atp63
a(g1
(lp64
F11.857733098605951
aF11.189656726913903
aF8.659875686084673
aF3.2179827565065287
aF22.58297209991851
aF8.735238145554982
aF11.628499161022324
aF1.3043743657181115
atp65
a(g1
(lp66
F11.774382695960888
aF11.10848908837262
aF8.587812252762065
aF3.172990533088726
aF22.26772607542563
aF8.527441836580334
aF11.505094564940768
aF1.2498075177106815
atp67
a(g1
(lp68
F11.869376458786407
aF11.201355990453749
aF8.671333753676937
aF3.22568884988431
aF22.624766876966927
aF8.7798235395909
aF11.626250610653264
aF1.3130305276138088
atp69
a(g1
(lp70
F11.772395229837713
aF11.104499849936856
aF8.573809542414995
aF3.1344245852902746
aF22.176239944242596
aF8.367836303608906
aF11.508319669455235
aF1.1938235035715676
atp71
a(g1
(lp72
F11.772078997700653
aF11.108217857544952
aF8.59466524120884
aF3.1841209826400676
aF22.239418913878946
aF8.570138971636295
aF11.445110276662021
aF1.2608782661754447
atp73
a(g1
(lp74
F11.806961456836577
aF11.136667015162654
aF8.599488078722082
aF3.163440094077958
aF22.314664827212898
aF8.49391197996816
aF11.573163958523104
aF1.2427347694146935
atp75
a(g1
(lp76
F11.742870259275136
aF11.081581498108624
aF8.575432609392744
aF3.1743681345187187
aF22.132569324567832
aF8.529420011284865
aF11.389062771540404
aF1.252762607150503
atp77
a(g1
(lp78
F11.723710588255999
aF11.060131305559956
aF8.547877882811092
aF3.1517734475278645
aF21.944654223204427
aF8.412126590177472
aF11.31719623254293
aF1.2310664996302743
atp79
a(g1
(lp80
F11.681470215120683
aF11.026585945712256
aF8.544425828466562
aF3.1827213399740497
aF22.005365756862215
aF8.545164313934416
aF11.292376407236556
aF1.2716178573621868
atp81
a(g1
(lp82
F11.766344367557863
aF11.105611172278005
aF8.603132844449057
aF3.212891486156765
aF22.33148334022153
aF8.68993466295992
aF11.479986511696987
aF1.3088191605018586
atp83
a(g1
(lp84
F11.92222609277743
aF11.251119900629503
aF8.70955801987344
aF3.2414859043961894
aF22.776156011118204
aF8.853297678493366
aF11.700357820239937
aF1.3292176801158064
atp85
a(g1
(lp86
F11.798624585287333
aF11.13363517727291
aF8.614195175487394
aF3.1888141737308158
aF22.328345346932597
aF8.590725157138083
aF11.507148855011444
aF1.265747445685971
atp87
a(g1
(lp88
F11.65106420542828
aF11.004300780563028
aF8.550067233970791
aF3.2213505996009775
aF22.131894792513375
aF8.699160087731775
aF11.309923643922907
aF1.3197366674119742
atp89
a(g1
(lp90
F11.641539964092486
aF10.987720016463092
aF8.509795391398754
aF3.1629247284662414
aF21.92930511661323
aF8.442210543703924
aF11.318214409931281
aF1.2515519634720622
atp91
a(g1
(lp92
F11.898580020076519
aF11.235126652910889
aF8.720812709179173
aF3.2842206520452653
aF22.940077061031243
aF9.030709270161578
aF11.736187816922266
aF1.3830901027929503
atp93
a(g1
(lp94
F11.822296234019777
aF11.153451341761166
aF8.620177498292291
aF3.176158277203922
aF22.41099988608681
aF8.54926328946122
aF11.599999777412814
aF1.2476738039494253
atp95
a(g1
(lp96
F11.827876732894838
aF11.163760854706549
aF8.647206404272584
aF3.219155996856755
aF22.487331740956567
aF8.725714387273925
aF11.549335880607002
aF1.3012623739672713
atp97
a(g1
(lp98
F12.967413288899758
aF12.20243631561252
aF9.327490618271135
aF3.3235722008572526
aF26.044964010081106
aF9.490905089005057
aF13.801040705218533
aF1.329262258571149
atp99
a(g1
(lp100
F13.062277935501193
aF12.295176216764531
aF9.413420637863263
aF3.4001143845454447
aF26.523934367060352
aF9.85320984748735
aF13.995788530561175
aF1.4403532529129284
atp101
a(g1
(lp102
F13.011476560136131
aF12.246167903156815
aF9.371910295817466
aF3.377686295534833
aF26.26809308273652
aF9.73713198596471
aF13.86143755388733
aF1.4147948086435647
atp103
a(g1
(lp104
F12.928160639005531
aF12.1633289897376
aF9.291622019459911
aF3.3190999341889587
aF25.780620229119872
aF9.450767019399178
aF13.652658629574523
aF1.3475685659936034
atp105
a(g1
(lp106
F12.966506255079494
aF12.203825454325743
aF9.336301014480735
aF3.3427884019442153
aF26.0893020932726
aF9.577419239709675
aF13.798735371923382
aF1.3629865835814665
atp107
a(g1
(lp108
F12.985480306131183
aF12.223284329449644
aF9.360991329170515
aF3.3930032988268874
aF26.183704678948757
aF9.792973728457714
aF13.781235185335788
aF1.4479257516013797
atp109
a(g1
(lp110
F12.948125571556899
aF12.18659696475227
aF9.32506654295305
aF3.3498796390262764
aF26.00484010815956
aF9.59622481357877
aF13.730935916749148
aF1.3788824856722057
atp111
a(g1
(lp112
F12.917453257746285
aF12.157600917658907
aF9.303066948422174
aF3.3471384802430126
aF25.854283170073302
aF9.573804007706663
aF13.63563970729313
aF1.3843273819331048
atp113
a(g1
(lp114
F12.909974998825755
aF12.152094175135401
aF9.306241194012545
aF3.369575990906834
aF25.854728190692466
aF9.66503652058727
aF13.594580103588052
aF1.4203762795504702
atp115
a(g1
(lp116
F12.854942841991178
aF12.097546201131648
aF9.252529624293063
aF3.3226533073836286
aF25.548863057071703
aF9.442841954211461
aF13.478503474175797
aF1.360113525079947
atp117
a(g1
(lp118
F12.829890590403963
aF12.068084259465278
aF9.20881017569654
aF3.2701836028426454
aF25.287242409841877
aF9.205609921602225
aF13.408268986310034
aF1.2926690662752418
atp119
a(g1
(lp120
F12.900729023207669
aF12.141253263072393
aF9.288498094039081
aF3.341191598571425
aF25.761118656032558
aF9.541391626362433
aF13.589965095019172
aF1.383282900223224
atp121
a(g1
(lp122
F12.899569979089808
aF12.135625822536088
aF9.265740894351673
aF3.288509545361009
aF25.659781471142978
aF9.312604441699856
aF13.622708344990683
aF1.300981227703126
atp123
a(g1
(lp124
F12.794052256670719
aF12.034150283746174
aF9.184250210467
aF3.2713657797088316
aF25.119547160673765
aF9.190555149570923
aF13.294003776979002
aF1.2992688801255468
atp125
a(g1
(lp126
F12.836335719083932
aF12.078463260689599
aF9.232122803585312
aF3.3043743600469972
aF25.427016163118488
aF9.355692115347223
aF13.434657431042979
aF1.338625741008608
atp127
a(g1
(lp128
F12.921899907181869
aF12.164310661606486
aF9.317115302122499
aF3.365946199307838
aF25.943125077913685
aF9.655453568181183
aF13.657142555124633
aF1.405311845772782
atp129
a(g1
(lp130
F12.929096274439896
aF12.167098819008281
aF9.304141337207925
aF3.3269777237808267
aF25.890228431350874
aF9.486931559824841
aF13.694668160504282
aF1.3443015813812969
atp131
a(g1
(lp132
F12.888172464958211
aF12.125961325152002
aF9.265543023880873
aF3.3184287084682396
aF25.61810933347709
aF9.42408432552782
aF13.54364721847872
aF1.3485084651033958
atp133
a(g1
(lp134
F12.86040231315413
aF12.09882957944983
aF9.238888431783215
aF3.291114682156405
aF25.47183569165111
aF9.30486097032627
aF13.4962367851623
aF1.3168294539716852
atp135
a(g1
(lp136
F12.907848135529361
aF12.14934735572959
aF9.298399791808697
aF3.3432819456651774
aF25.839173695777188
aF9.549533272778982
aF13.631318396889922
aF1.3736985559581645
atp137
a(g1
(lp138
F12.951469977526699
aF12.190813628870593
aF9.330630128826302
aF3.346999901232323
aF26.05954434896747
aF9.58868132479486
aF13.766663367488341
aF1.3678023070109444
atp139
a(g1
(lp140
F13.004659094768124
aF12.241303041477742
aF9.373838181034115
aF3.3873822490728087
aF26.28523160942549
aF9.772548773909289
aF13.854169343086635
aF1.4265457416759784
atp141
a(g1
(lp142
F12.909355722247826
aF12.145200594658982
aF9.275799587506445
aF3.306766434973875
aF25.695266301295305
aF9.389379727338152
aF13.61690253349554
aF1.3307564528043838
atp143
a(g1
(lp144
F12.893484046447833
aF12.126871614410478
aF9.24870998165585
aF3.2676258033283054
aF25.548550147222848
aF9.21471184555279
aF13.587179749770664
aF1.270827089554794
atp145
a(g1
(lp146
F12.96584269067508
aF12.19716295002237
aF9.31434536826211
aF3.3320949643312003
aF25.89738596855849
aF9.511780410182034
aF13.71281832367051
aF1.3640420372252517
atp147
a(g1
(lp148
F13.051520867449574
aF12.279375332852158
aF9.38258783414342
aF3.3670822550615953
aF26.315653647802577
aF9.69688156461848
aF13.937063541922896
aF1.4040913131726864
atp149
a(g1
(lp150
F13.055633976755626
aF12.286610430546993
aF9.39870832583827
aF3.378557129064962
aF26.44124982728196
aF9.755027095502221
aF13.979459162162003
aF1.4074662073812931
atp151
a(g1
(lp152
F12.971270199158809
aF12.202941263279326
aF9.320664010858048
aF3.3351060062194144
aF25.94142470994074
aF9.528188414416176
aF13.734892191505217
aF1.3656299198181656
atp153
a(g1
(lp154
F12.981398919885692
aF12.212499231068731
aF9.32978728407015
aF3.350903587186282
aF25.973082982883906
aF9.599515742641076
aF13.73370932690758
aF1.3964491223951998
atp155
a(g1
(lp156
F13.049764650621901
aF12.276720318024449
aF9.375596821937942
aF3.3443692896848574
aF26.3051133480225
aF9.599991699713245
aF13.958049705111293
aF1.3595577803449241
atp157
a(g1
(lp158
F13.064239137542282
aF12.296320494549628
aF9.413886022665334
aF3.4064879987539767
aF26.510964705306034
aF9.879426710565323
aF13.972067568708168
aF1.451405699589996
atp159
a(g1
(lp160
F13.024979689750209
aF12.254724467220116
aF9.36195007931047
aF3.340197392048093
aF26.22377777182214
aF9.578715223191267
aF13.911150839325739
aF1.3604053444802355
atp161
a(g1
(lp162
F13.025658443509311
aF12.256680002312605
aF9.370012658723528
aF3.35968543546518
aF26.2582896862516
aF9.664185140864644
aF13.89397421271055
aF1.3896114658670473
atp163
a(g1
(lp164
F13.01382644865107
aF12.244415865517748
aF9.357125752669633
aF3.349866692788759
aF26.183311376273277
aF9.613241379254942
aF13.858563873620286
aF1.3734652097690185
atp165
a(g1
(lp166
F12.937738529034554
aF12.171941947634489
aF9.299304467071465
aF3.327066589999417
aF25.82794238774211
aF9.485119758677701
aF13.661232255565936
aF1.3530694833644974
atp167
a(g1
(lp168
F12.946423269829074
aF12.17674742169788
aF9.290480474376679
aF3.3031170273837795
aF25.77012754433088
aF9.382952842229992
aF13.67700836972669
aF1.323225782120185
atp169
a(g1
(lp170
F13.044180449677468
aF12.273666549309095
aF9.380655369696907
aF3.357207782895896
aF26.333692746064024
aF9.657513779024079
aF13.954969836984107
aF1.3809275319739232
atp171
a(g1
(lp172
F12.930164850337471
aF12.16160450094122
aF9.280233174963069
aF3.3051551681556854
aF25.704628139117517
aF9.383376450002887
aF13.629437813161978
aF1.3275971873773063
atp173
a(g1
(lp174
F12.811337586010271
aF12.04844188808684
aF9.185666959625092
aF3.2380742885798823
aF25.170972254688753
aF9.063425765747194
aF13.376852788882696
aF1.2396280623863096
atp175
a(g1
(lp176
F12.937434058590513
aF12.169112166596816
aF9.287480978393518
aF3.3057559638689757
aF25.758203846053572
aF9.390531458759112
aF13.663278198304239
aF1.3248755511367745
atp177
a(g1
(lp178
F13.020777810068145
aF12.251376021879041
aF9.362159955295992
aF3.344905804605829
aF26.229446793861843
aF9.593995086104552
aF13.909389204411452
aF1.365335935498884
atp179
a(g1
(lp180
F12.912195764645643
aF12.144557268214045
aF9.264728478499238
aF3.2820286424007037
aF25.641451263330833
aF9.281751017283568
aF13.62317196320948
aF1.2893974219935842
atp181
a(g1
(lp182
F12.807199568401039
aF12.04505460716884
aF9.186059347535524
aF3.248359359891921
aF25.162254929056697
aF9.101782355217075
aF13.354845636443462
aF1.256860228089097
atp183
a(g1
(lp184
F12.928495659941715
aF12.165063906138299
aF9.30061519273603
aF3.346085580454157
aF25.810669703520745
aF9.560998422871405
aF13.623073485953407
aF1.388636419223979
atp185
a(g1
(lp186
F12.980798380484673
aF12.20998721786622
aF9.319270602576953
aF3.3241624153467977
aF25.935869770155378
aF9.479562789759052
aF13.756436360939272
aF1.3482553182195296
atp187
a(g1
(lp188
F12.984147718129297
aF12.216057896405195
aF9.335207182769683
aF3.3504998314922494
aF26.02990648962019
aF9.598305691441633
aF13.76772773023014
aF1.385892133186861
atp189
a(g1
(lp190
F12.927194277045583
aF12.15822875180088
aF9.27146796087442
aF3.269816490527916
aF25.70020904619633
aF9.237899006874967
aF13.680270808551379
aF1.2642103091315484
atp191
a(g1
(lp192
F12.901887354192892
aF12.135401799281698
aF9.260638638855532
aF3.2959190932428992
aF25.5860024538855
aF9.332744788810276
aF13.564969960230187
aF1.3179735382799207
atp193
a(g1
(lp194
F13.029392315848598
aF12.25335417415914
aF9.342870549631932
aF3.312150074348835
aF26.092963054972856
aF9.446975423740227
aF13.89220609737514
aF1.324651992696274
atp195
a(g1
(lp196
F13.059483487212121
aF12.285337177464626
aF9.379743068320229
aF3.3433302767566913
aF26.32639878225653
aF9.598473328194457
aF13.986670923819325
aF1.3657151694756406
atp197
a(g1
(lp198
F13.018305768839044
aF12.246819072419992
aF9.351720124026507
aF3.3377145773568495
aF26.143426054686145
aF9.559591445844607
aF13.86849732096453
aF1.3618515034398304
atp199
a(g1
(lp200
F12.979173760333579
aF12.210876624852819
aF9.329015119792416
aF3.3372594882245
aF26.002738108766046
aF9.541722472261037
aF13.764465495439179
aF1.3628632643370802
atp201
a(g1
(lp202
F13.03806003539905
aF12.261244858577381
aF9.34712180949261
aF3.306607261139541
aF26.129351986129524
aF9.43116377533681
aF13.924413274878905
aF1.316334885340019
atp203
a(g1
(lp204
F13.002245019472177
aF12.22878400581056
aF9.326930192603768
aF3.3051030024428205
aF26.009801122508435
aF9.417330679380784
aF13.838219777266067
aF1.3182081526938116
atp205
a(g1
(lp206
F12.962190607400016
aF12.191538342792695
aF9.30131177319115
aF3.3006076420673662
aF25.85208354634926
aF9.376505794560694
aF13.730723872976375
aF1.3079248691105554
atp207
a(g1
(lp208
F13.015115664734115
aF12.241273795767246
aF9.339050520403879
aF3.317006001848635
aF26.07415708903227
aF9.46616336600252
aF13.858246621519799
aF1.3292034763526428
atp209
a(g1
(lp210
F13.09005121029606
aF12.315475422243251
aF9.408737549198298
aF3.3639560684459675
aF26.506658223523893
aF9.698621938467207
aF14.063145704012419
aF1.3840872261460824
atp211
a(g1
(lp212
F12.95760057854729
aF12.186100359751656
aF9.293534904814127
aF3.3004418184521764
aF25.787755551132236
aF9.378120166582073
aF13.70396379018675
aF1.3248390251186644
atp213
a(g1
(lp214
F12.892649992535722
aF12.125367469761668
aF9.247437070762954
aF3.2723667618797347
aF25.530844993943813
aF9.235316805915625
aF13.563617341819919
aF1.2792224127643723
atp215
a(g1
(lp216
F13.032061882146337
aF12.260921307442711
aF9.367349776331166
aF3.348502305799598
aF26.250005340725682
aF9.611410505926287
aF13.909399937971553
aF1.366626057060175
atp217
a(g1
(lp218
F13.068436951024385
aF12.294914676333637
aF9.394580829828234
aF3.3763035193504214
aF26.386251235200312
aF9.736985103860269
aF13.969641461556126
aF1.4148166278066248
atp219
a(g1
(lp220
F12.884476940163673
aF12.117717586165858
aF9.242292816354809
aF3.274631373792245
aF25.49366945139665
aF9.242417234989368
aF13.536703545998238
aF1.2879902804919428
atp221
a(g1
(lp222
F12.841107890872628
aF12.077075683522116
aF9.21106314476415
aF3.2641411060612335
aF25.300031586454057
aF9.17918274172596
aF13.43018491115707
aF1.2811210039583463
atp223
a(g1
(lp224
F13.015717267868617
aF12.246639721823682
aF9.362439373794214
aF3.3716465050985978
aF26.185990688995638
aF9.69884940260171
aF13.832669157565013
aF1.4121791790462817
atp225
a(g1
(lp226
F13.01782402568416
aF12.248314448723459
aF9.363246368521647
aF3.3700529315135523
aF26.189790269624165
aF9.694187130656882
aF13.836108837705579
aF1.4100193675331525
atp227
a(g1
(lp228
F12.900255907368575
aF12.134059177098136
aF9.262706698819402
aF3.3115355889518288
aF25.577447520436582
aF9.399073428148949
aF13.535403278666179
aF1.347026681182406
atp229
a(g1
(lp230
F12.857078270521644
aF12.092414339785735
aF9.224863741188027
aF3.2790741871475326
aF25.365840025810588
aF9.247814004205456
aF13.451704913526665
aF1.3045597233873403
atp231
a(g1
(lp232
F12.993995166334402
aF12.225331350490947
aF9.338893697392514
aF3.3273349118645856
aF26.093002987133048
aF9.511538300337527
aF13.839589761891535
aF1.3396978685889895
atp233
a(g1
(lp234
F13.042545640317734
aF12.266528538728538
aF9.356601610025415
aF3.328258997828787
aF26.164953773438896
aF9.521169947899716
aF13.914059147072098
aF1.350087913472891
atp235
a(g1
(lp236
F13.039599574081581
aF12.265635343142995
aF9.36155694761436
aF3.333237915163207
aF26.212744556614894
aF9.544525610310663
aF13.931969787939277
aF1.354498515636802
atp237
a(g1
(lp238
F12.955421294305607
aF12.187411466192588
aF9.305350900453515
aF3.315028888238809
aF25.86910902829711
aF9.438707640924735
aF13.718671493332629
aF1.334847951890113
atp239
a(g1
(lp240
F12.96680801952953
aF12.198082016950858
aF9.313828223552262
aF3.318088975330885
aF25.92285221964264
aF9.455575396203301
aF13.74691847464314
aF1.3342392292535887
atp241
a(g1
(lp242
F13.101520226607974
aF12.32683630792158
aF9.417925898256813
aF3.362507980843509
aF26.57196419842356
aF9.701885070836793
aF14.112214404683389
aF1.3806348795856946
atp243
a(g1
(lp244
F13.093419734293462
aF12.322090084620081
aF9.427448527918797
aF3.4020664794719186
aF26.60229005328254
aF9.860261229456365
aF14.054104199831338
aF1.4376899582477594
atp245
a(g1
(lp246
F13.002179777679991
aF12.23491260356313
aF9.35747901601765
aF3.37802282686246
aF26.152803379000083
aF9.718691088599448
aF13.797769816853268
aF1.4218316498056682
atp247
a(g1
(lp248
F13.00179991743325
aF12.230490126447918
aF9.336785337173422
aF3.3247814808329643
aF26.062274547866988
aF9.497182260446273
aF13.828743583786508
aF1.3399289719070364
atp249
a(g1
(lp250
F13.089022602834262
aF12.316224305520473
aF9.41451595353989
aF3.3695390101170095
aF26.552462860769324
aF9.72645253845793
aF14.075226163106244
aF1.386443872987006
atp251
a(g1
(lp252
F13.046584844678735
aF12.272498277994025
aF9.369409111404016
aF3.3446090551099057
aF26.255062369849263
aF9.594561419829997
aF13.934603064609622
aF1.3662161151229282
atp253
a(g1
(lp254
F12.944184266147108
aF12.175469465999933
aF9.292858154498681
aF3.3111992952922513
aF25.78514989379126
aF9.415081243051182
aF13.674051056143576
aF1.3333883519472614
atp255
a(g1
(lp256
F12.979971762352001
aF12.209214168515985
aF9.317995456204253
aF3.317594580128689
aF25.939489475546466
aF9.455821361580517
aF13.770887351037258
aF1.3390840488176012
atp257
a(g1
(lp258
F13.153715242869687
aF12.379717645288842
aF9.47303613745444
aF3.4132509109706373
aF26.900358045782742
aF9.94238005361419
aF14.234206444990722
aF1.4462787705352695
atp259
a(g1
(lp260
F13.081075188656403
aF12.307765312559088
aF9.406716594718565
aF3.3786951785631647
aF26.475678940254976
aF9.75777862592784
aF14.017195952703638
aF1.4111343398786527
atp261
a(g1
(lp262
F12.952559840720356
aF12.185482508994282
aF9.309580628706811
aF3.3408150122641063
aF25.862314163206786
aF9.546587212854687
aF13.6715509923555
aF1.3806610009345264
atp263
a(g1
(lp264
F13.021210528588803
aF12.251462486606828
aF9.36365788072793
aF3.3619922353104705
aF26.207427627253445
aF9.66230901783114
aF13.86545396491722
aF1.3967916704324603
atp265
a(g1
(lp266
F13.141398447405711
aF12.369974379681416
aF9.473402939678778
aF3.430382514248098
aF26.89088676828992
aF10.011605120310321
aF14.192774439038516
aF1.472850351970862
atp267
a(g1
(lp268
F13.086742181158687
aF12.31447708244536
aF9.417028631968043
aF3.3899576931689195
aF26.53989254477049
aF9.809622493782859
aF14.034309970932314
aF1.424420251563365
atp269
a(g1
(lp270
F12.918719392868425
aF12.153879967389358
aF9.284642444041966
aF3.326592452090952
aF25.72003404213155
aF9.47912901191319
aF13.606008367927389
aF1.368613894479335
atp271
a(g1
(lp272
F12.979539625256184
aF12.210340454854839
aF9.322517710856207
aF3.314991616722421
aF25.997864808032343
aF9.451551569774482
aF13.80503018659084
aF1.3287191024178655
atp273
a(g1
(lp274
F13.08293469256725
aF12.309451363502625
aF9.408285452328974
aF3.3846025700987443
aF26.467961145536087
aF9.782923019010191
aF14.011373184522558
aF1.4283518544186176
atp275
a(g1
(lp276
F13.050951952673529
aF12.278134419868286
aF9.378756681693268
aF3.3520736367136035
aF26.31472922358292
aF9.63702962976512
aF13.954013993970927
aF1.3761135668969007
atp277
a(g1
(lp278
F12.879978221954921
aF12.113870677795544
aF9.240363529579565
aF3.2803125540712808
aF25.469287639164598
aF9.264367932181655
aF13.518778282984954
aF1.3028812716684282
atp279
a(g1
(lp280
F12.915347839169934
aF12.144917771235582
aF9.254360604317075
aF3.2634587499059267
aF25.575095975235378
aF9.207684667388724
aF13.626024515198695
aF1.2748358607549186
atp281
a(g1
(lp282
F13.086942352022895
aF12.31468493864245
aF9.414966557520321
aF3.3746224093127024
aF26.545905430764712
aF9.748242611495625
aF14.062834042828783
aF1.39760083979871
atp283
a(g1
(lp284
F13.094679875951746
aF12.32124612310049
aF9.416278981987817
aF3.3613985002158295
aF26.576822170322693
aF9.696306387771665
aF14.10479735170411
aF1.373014100406422
atp285
a(g1
(lp286
F12.984716980354962
aF12.214146599984828
aF9.325388652717104
aF3.3346870256052927
aF25.97049647929779
aF9.526767477902064
aF13.760452960750852
aF1.3636646939061274
atp287
a(g1
(lp288
F12.956485918619817
aF12.188070419632329
aF9.305729303596777
aF3.3231894017055703
aF25.854803823351407
aF9.476574144825024
aF13.69970823550205
aF1.3546302223528552
atp289
a(g1
(lp290
F13.173686057451732
aF12.402237985733759
aF9.50306683117198
aF3.4439647813407754
aF27.086604260036903
aF10.089631638270365
aF14.29438258678587
aF1.487057484483996
atp291
a(g1
(lp292
F13.042360984544723
aF12.268038764410003
aF9.363074943188584
aF3.3365747231957608
aF26.22542510831409
aF9.555809332038544
aF13.934536962325607
aF1.3562306366091086
atp293
a(g1
(lp294
F12.908350292015934
aF12.13961526979604
aF9.256984971297689
aF3.28231072013376
aF25.570854699095385
aF9.280655014701962
aF13.584362043807102
aF1.30127458451933
atp295
a(g1
(lp296
F13.060983653606096
aF12.289575615691307
aF9.396068012386449
aF3.383472000764518
aF26.399086732683127
aF9.770052871934542
aF13.956291445009219
aF1.423302253202777
atp297
a(g1
(lp298
F13.16093073635977
aF12.387681078634609
aF9.48528463716274
aF3.4392719370205955
aF26.9487018764166
aF10.05607146602093
aF14.220513272059428
aF1.4881315022585122
atp299
a(g1
(lp300
F13.009197654133683
aF12.233630824386298
aF9.324703905724235
aF3.2972596850437554
aF25.99843798844518
aF9.378640144497506
aF13.856661050118689
aF1.3059626724865612
atp301
a(g1
(lp302
F12.91781309748627
aF12.149342544781167
aF9.267743005986476
aF3.293090453190956
aF25.635097490727233
aF9.32763062277898
aF13.608680013061631
aF1.3139548037562347
atp303
a(g1
(lp304
F13.100629304686498
aF12.326005001944537
aF9.418789871090766
aF3.376627546997082
aF26.558258217079793
aF9.75525119689071
aF14.079751028423708
aF1.4052512863910698
atp305
a(g1
(lp306
F13.149313592508049
aF12.377135501113505
aF9.478797483009883
aF3.436932131504678
aF26.914727031671593
aF10.040821121155977
aF14.193576151288912
aF1.4810733618516476
atp307
a(g1
(lp308
F13.033536672130701
aF12.264007448394098
aF9.374968556422354
aF3.3603241195149307
aF26.297818149407703
aF9.662856617119477
aF13.926059417737493
aF1.3852290916808905
atp309
a(g1
(lp310
F12.935298544484517
aF12.174141366776583
aF9.317898976324626
aF3.3675037910600008
aF25.92314951498949
aF9.657984695568965
aF13.647733279600427
aF1.4109777933554806
atp311
a(g1
(lp312
F13.056435291865979
aF12.289167539283557
aF9.409053335434836
aF3.406313820598654
aF26.48440481967191
aF9.874921252466724
aF13.959040673773224
aF1.453508142210319
atp313
a(g1
(lp314
F13.07661902847814
aF12.30370286407233
aF9.403954050938651
aF3.370007312404047
aF26.476478463904826
aF9.723121080200256
aF14.02116013415289
aF1.393096105091966
atp315
a(g1
(lp316
F12.973170533417305
aF12.205831781933846
aF9.327914927272246
aF3.3439892007912806
aF25.99475471396737
aF9.570248374890285
aF13.745160144971575
aF1.3725660816192196
atp317
a(g1
(lp318
F12.846232657990335
aF12.08052123771837
aF9.208381336338519
aF3.25319853840618
aF25.29324583224655
aF9.13642242927358
aF13.449065700823336
aF1.2672749195041617
atp319
a(g1
(lp320
F12.943135541415815
aF12.173993564940373
aF9.287988172248408
aF3.2930052343191942
aF25.78536016090687
aF9.344568630874116
aF13.702546957231489
aF1.3034118582629555
atp321
a(g1
(lp322
F13.08875872893313
aF12.315138509912572
aF9.412306701139046
aF3.375481350755762
aF26.514035314526346
aF9.751418194621092
aF14.043398024767416
aF1.402896436400187
atp323
a(g1
(lp324
F13.006210825397089
aF12.238352128952531
aF9.356425987606505
aF3.3561528735042128
aF26.177566247811068
aF9.639054695883537
aF13.844523332838666
aF1.3836098979152915
atp325
a(g1
(lp326
F12.87995525563635
aF12.113676291940594
aF9.240119769596252
aF3.2826702648443145
aF25.46306671139918
aF9.273085012548478
aF13.510327168570234
aF1.3075350107529806
atp327
a(g1
(lp328
F12.963093338464214
aF12.197846494067354
aF9.328393616143172
aF3.3672055897494784
aF25.967594112598473
aF9.666368559757522
aF13.689004728056481
aF1.4172738602159598
atp329
a(g1
(lp330
F13.16611378917623
aF12.392667694116927
aF9.48690326351344
aF3.42322038478249
aF26.98418499577773
aF9.994400924621019
aF14.267280650339643
aF1.4595150937184649
atp331
a(g1
(lp332
F13.060234626702533
aF12.291202239497023
aF9.405349831401375
aF3.3978502750590414
aF26.46023156410135
aF9.834336520370558
aF13.96617719636545
aF1.4413572745731051
atp333
a(g1
(lp334
F12.96250024991019
aF12.192961143956113
aF9.305560639050615
aF3.3089272847527775
aF25.87293140087148
aF9.41686871986377
aF13.736143278327656
aF1.3265545973835757
atp335
a(g1
(lp336
F13.074079602854818
aF12.303634614307743
aF9.41201532432891
aF3.3932720014971482
aF26.501251882690756
aF9.823562731540928
aF13.998855363818201
aF1.4342546469540378
atp337
a(g1
(lp338
F13.057399133981395
aF12.289012285361546
aF9.402390948205046
aF3.386696222562003
aF26.459979677937966
aF9.791564564974404
aF13.989604881572951
aF1.4271706886514
atp339
a(g1
(lp340
F13.075382958712607
aF12.306143341345434
aF9.414839779622676
aF3.3749979671706085
aF26.574625628705373
aF9.750608462775668
aF14.072672136519202
aF1.391451935455387
atp341
a(g1
(lp342
F12.898722623242747
aF12.133112195964177
aF9.259181054550355
aF3.284401588339331
aF25.607230605057953
aF9.291200836779241
aF13.597194072035366
aF1.2975303960650733
atp343
a(g1
(lp344
F12.878366833395576
aF12.116236867138065
aF9.255943920854259
aF3.3070122145550296
aF25.566303848158597
aF9.378392610051502
aF13.526593911095055
aF1.3340372077351765
atp345
a(g1
(lp346
F13.065465991653268
aF12.29765857108454
aF9.41301456602784
aF3.3927872525573717
aF26.544846580918964
aF9.819388514969932
aF14.025086172473612
aF1.4227789554743915
atp347
a(g1
(lp348
F13.09160183583297
aF12.32200353496868
aF9.430130684666858
aF3.393108825347008
aF26.657000926897645
aF9.831201919992573
aF14.100616343695156
aF1.41879866950604
atp349
a(g1
(lp350
F12.905608408956972
aF12.137739895585852
aF9.255312749978089
aF3.2652051658900136
aF25.603235682369405
aF9.21156615238283
aF13.624346057325058
aF1.2631147867830574
atp351
a(g1
(lp352
F12.882178278805625
aF12.117661903270985
aF9.245110413393851
aF3.265554207658161
aF25.54440633051859
aF9.209152848284907
aF13.589226303470857
aF1.2722759329811053
atp353
a(g1
(lp354
F13.060580198515689
aF12.28854892824181
aF9.389435450548614
aF3.355585231466894
aF26.399734694319122
aF9.655161893929508
aF14.007315000952621
aF1.3763344823826538
atp355
a(g1
(lp356
F13.068704752117585
aF12.296657958603257
aF9.396413273561587
aF3.3563808967939464
aF26.445316441289098
aF9.663530168407265
aF14.037220439714389
aF1.3761982197232212
atp357
a(g1
(lp358
F12.93207483687481
aF12.163334853698073
aF9.277561265198862
aF3.2833762153358172
aF25.718952349456842
aF9.298438733793851
aF13.681270303723517
aF1.2936258033062997
atp359
a(g1
(lp360
F12.891591620606686
aF12.130833911397614
aF9.27413031734872
aF3.320673163516066
aF25.68800626559391
aF9.443637919228346
aF13.575503911240881
aF1.345614826664879
atp361
a(g1
(lp362
F12.91762347125888
aF12.152006818803587
aF9.277321868114283
aF3.298318006604444
aF25.720002196107792
aF9.361935524834134
aF13.651472011278704
aF1.3179866134613083
atp363
a(g1
(lp364
F12.994134625303218
aF12.225962279752462
aF9.34242352752011
aF3.339561717702397
aF26.102738839391854
aF9.563180090930654
aF13.829333315256822
aF1.3625204751317108
atp365
a(g1
(lp366
F12.868197628754416
aF12.104159477305668
aF9.234841712944009
aF3.270087793626241
aF25.462403469794825
aF9.223129989648452
aF13.527825400052324
aF1.285242651664595
atp367
a(g1
(lp368
F12.783833280083957
aF12.025496483904785
aF9.178244253624129
aF3.254875669202851
aF25.12999004191699
aF9.125215184434209
aF13.321893481344103
aF1.2691424447841857
atp369
a(g1
(lp370
F12.889518482115603
aF12.126465934507566
aF9.259803779245459
aF3.288874295082894
aF25.617511708039917
aF9.31705290712847
aF13.593440930663713
aF1.3068426878644481
atp371
a(g1
(lp372
F12.993506337178337
aF12.225562156219144
aF9.34158104303684
aF3.3394775369836975
aF26.088109649540275
aF9.565411307487647
aF13.824404844302387
aF1.368166286830488
atp373
a(g1
(lp374
F12.807235123734229
aF12.049946830054965
aF9.208065900152565
aF3.2970971597517984
aF25.269333066496188
aF9.31120636663974
aF13.339559144668701
aF1.3307315593807716
atp375
a(g1
(lp376
F12.76288832793028
aF12.00405226037799
aF9.157472482696665
aF3.248036938030725
aF24.980928936714246
aF9.086374929009883
aF13.23768284415093
aF1.2696652292240462
atp377
a(g1
(lp378
F13.018222342402415
aF12.249582298894179
aF9.362183026848166
aF3.3447735899459996
aF26.236459001329923
aF9.59642609409957
aF13.905619155351294
aF1.3617827398514266
atp379
a(g1
(lp380
F13.03320016192617
aF12.265399319632362
aF9.38166259617366
aF3.3700010771925766
aF26.33756208717904
aF9.712017465353876
aF13.928713491621108
aF1.4015161308366044
atp381
a(g1
(lp382
F12.86194000662225
aF12.101778788217182
aF9.247474439466663
aF3.3016373355536803
aF25.53025092778445
aF9.35366654220846
aF13.501554697565034
aF1.3241277097378479
atp383
a(g1
(lp384
F12.873264024854057
aF12.112141013542997
aF9.252037592760527
aF3.286915878913164
aF25.580799779474695
aF9.301687973699526
aF13.559167210238233
aF1.298441402054626
atp385
a(g1
(lp386
F11.890210840708548
aF11.22444740371134
aF8.701916281621342
aF3.2603846073194034
aF22.932927775631747
aF8.923961211657659
aF11.805430586258582
aF1.352932275465391
atp387
a(g1
(lp388
F11.757377133266907
aF11.101502985679852
aF8.617368614821055
aF3.251096783215211
aF22.450709135940404
aF8.841769503600974
aF11.501427148068007
aF1.3607998827373822
atp389
a(g1
(lp390
F11.868005501328327
aF11.201756892265015
aF8.679012956754699
aF3.242815085652782
aF22.62782665864749
aF8.831800125298509
aF11.606681072135546
aF1.3339405882660562
atp391
a(g1
(lp392
F11.658126936833499
aF11.000187276306185
aF8.506845649748081
aF3.1301949606687645
aF21.899001703102694
aF8.320928352738717
aF11.332533649737108
aF1.1980139186773788
atp393
a(g1
(lp394
F11.970968839780346
aF11.30445444850969
aF8.776500201227131
aF3.301040382713766
aF23.276453513947125
aF9.132601096889886
aF11.927883858251802
aF1.391217525376941
atp395
a(g1
(lp396
F12.00562466727793
aF11.335877918377243
aF8.796506182633003
aF3.3065938834538744
aF23.3178202231727
aF9.158891402843796
aF11.952792861927463
aF1.4045504039198715
atp397
a(g1
(lp398
F11.794546123626704
aF11.133694074918369
aF8.630571973045546
aF3.232209791290157
aF22.41819115639753
aF8.772217727741264
aF11.495305390154803
aF1.3308551134332505
atp399
a(g1
(lp400
F11.744157839913793
aF11.080000017512718
aF8.566308648744876
aF3.167947231008623
aF22.13312909428069
aF8.485307028362277
aF11.446153270150779
aF1.2534159323156464
atp401
a(g1
(lp402
F11.890681645224888
aF11.221851160211912
aF8.688055517231424
aF3.227481449553994
aF22.77024763543041
aF8.785177881881957
aF11.739606369554481
aF1.3044659028205678
atp403
a(g1
(lp404
F11.847256303024908
aF11.181668791486096
aF8.660504316004657
aF3.2339636150989857
aF22.597367214371275
aF8.795756930151805
aF11.626659461969739
aF1.3322250073237683
atp405
a(g1
(lp406
F11.76011311955368
aF11.097697648419054
aF8.589823273943221
aF3.1959406972835103
aF22.157897963648068
aF8.61180007802318
aF11.377844779453167
aF1.2899001771470762
atp407
a(g1
(lp408
F11.64500316077977
aF10.986927179606788
aF8.495850411618676
aF3.1377218049410467
aF21.763785689038304
aF8.337782161512726
aF11.24063611936146
aF1.2194221049967244
atp409
a(g1
(lp410
F11.999529841568672
aF11.320827979176716
aF8.751043369338944
aF3.231882822507861
aF23.009402821176653
aF8.833366668097717
aF11.892265191316342
aF1.3071154202610245
atp411
a(g1
(lp412
F11.78420232747032
aF11.123154344760897
aF8.618997726540817
aF3.2194725932228225
aF22.37094978697954
aF8.721265860472862
aF11.482047097339315
aF1.3136252378965712
atp413
a(g1
(lp414
F11.53472170172465
aF10.881573189275917
aF8.407388901317278
aF3.0879177373328663
aF21.296832771197437
aF8.101576402177882
aF11.021341213030297
aF1.172844175127718
atp415
a(g1
(lp416
F11.534060640583014
aF10.882797203371712
aF8.41739880289068
aF3.1167304803824374
aF21.313121278335036
aF8.21533173594082
aF10.979078270280088
aF1.2122119111167502
atp417
a(g1
(lp418
F11.843148597734107
aF11.178543607619336
aF8.65982343652989
aF3.225077749224309
aF22.606936963562344
aF8.764527966277406
aF11.629340869279664
aF1.3089098455823496
atp419
a(g1
(lp420
F11.823589672229309
aF11.15886938561175
aF8.640505441144072
aF3.216347967926761
aF22.500217361466632
aF8.718868145345494
aF11.586528340330938
aF1.3068526637653977
atp421
a(g1
(lp422
F11.615167499095188
aF10.961682752963185
aF8.486505488637157
aF3.1512680084232305
aF21.67021186443407
aF8.385796470402452
aF11.135560234730958
aF1.242178894670857
atp423
a(g1
(lp424
F11.657387677689618
aF11.002453829122313
aF8.522399832372653
aF3.1776108405986774
aF21.855267479890152
aF8.500728179727055
aF11.220463143793204
aF1.2743758363148139
atp425
a(g1
(lp426
F11.811956846305263
aF11.151182017526931
aF8.647185163208501
aF3.2392832813785484
aF22.569933055168907
aF8.814781134771565
aF11.575608175731846
aF1.3345567668413894
atp427
a(g1
(lp428
F11.82226186408649
aF11.15436204333934
aF8.624295088003635
aF3.177297112409222
aF22.464947631363938
aF8.555140986278285
aF11.626039650543625
aF1.2401004622828236
atp429
a(g1
(lp430
F11.732150020853718
aF11.070566761527981
aF8.566227888821803
aF3.179287125847477
aF22.053205301218657
aF8.532344473111676
aF11.3400316995474
aF1.2664101231422202
atp431
a(g1
(lp432
F11.661021036665955
aF11.00361752579861
aF8.513421735348052
aF3.1523128364849056
aF21.88377837654781
aF8.401916934357606
aF11.296592905146777
aF1.238422362191325
atp433
a(g1
(lp434
F7.876537951831721
aF7.421958515013621
aF5.702332257232125
aF2.0312397653657976
aF12.190118118536056
aF3.8160992986949354
aF6.707790120537504
aF0.37951627171122027
atp435
a(g1
(lp436
F8.20732955265492
aF7.735084605886481
aF5.949527127941796
aF2.142334954949603
aF13.021971554158633
aF4.162614377145221
aF7.144767696752929
aF0.4466862856450555
atp437
a(g1
(lp438
F8.30415368059211
aF7.829362265000109
aF6.031566300947678
aF2.178319209102385
aF13.2629923112569
aF4.27184679026996
aF7.258793769352913
aF0.4677938589229137
atp439
a(g1
(lp440
F8.20188455454915
aF7.731351521768107
aF5.952060464202952
aF2.1548632096825298
aF12.848612824524235
aF4.173974208913517
aF7.005674637342305
aF0.46215777663028207
atp441
a(g1
(lp442
F8.128480702037542
aF7.65924145503758
aF5.885102957451043
aF2.1062216299018357
aF12.762738986114892
aF4.043404124669217
aF7.016295666002774
aF0.42409398297159195
atp443
a(g1
(lp444
F8.690890111014053
aF8.200272658227062
aF6.340092313502221
aF2.333558096003334
aF14.451633039791984
aF4.789270539539378
aF7.841487303631346
aF0.5573759966098129
atp445
a(g1
(lp446
F8.672372747721719
aF8.18477456711237
aF6.3375575488095555
aF2.360579587839005
aF14.341725576095902
aF4.853241672556841
aF7.737071145153271
aF0.5949646523095855
atp447
a(g1
(lp448
F8.38510776962468
aF7.904823150477571
aF6.087256536075061
aF2.201521543607839
aF13.35461105237908
aF4.336895691864867
aF7.291153215190484
aF0.48584897765799995
atp449
a(g1
(lp450
F8.235512210058817
aF7.764354607463744
aF5.982549897925742
aF2.171817690005798
aF13.077068896600448
aF4.232194925792433
aF7.142100625413205
aF0.4637611842951855
atp451
a(g1
(lp452
F8.200414479283513
aF7.738108612827085
aF5.986273617927145
aF2.2081984777658477
aF13.241395193528524
aF4.356351758008223
aF7.206297932839303
aF0.5005407433787841
atp453
a(g1
(lp454
F8.111125714124679
aF7.649352506893031
aF5.9002039451203085
aF2.1439800902526276
aF12.920950562305661
aF4.162873129225914
aF7.094428229352679
aF0.46486983576834917
atp455
a(g1
(lp456
F8.318336031321284
aF7.842883521778645
aF6.043183558098997
aF2.189362348100123
aF13.211148463608351
aF4.29052954473342
aF7.1965142181340145
aF0.4699735849488464
atp457
a(g1
(lp458
F8.51369411315114
aF8.025973730748097
aF6.18244786661485
aF2.250343606960685
aF13.570633830519245
aF4.48139451507322
aF7.3916355378385745
aF0.5328766571966083
atp459
a(g1
(lp460
F8.595561377659758
aF8.107248202202795
aF6.257685207162666
aF2.2856955583608185
aF13.99754192392028
aF4.609686608866819
aF7.598438327439881
aF0.5247174209377169
atp461
a(g1
(lp462
F8.27177235143429
aF7.798970907585935
aF6.009367052552896
aF2.175560617719951
aF13.091887798386994
aF4.248131379627557
aF7.143410608075633
aF0.4722931453261214
atp463
a(g1
(lp464
F8.128760395978006
aF7.660855721520627
aF5.893806697440309
aF2.130166162979043
aF12.600205225786176
aF4.077635337192204
aF6.885523156784599
aF0.4527627971053616
atp465
a(g1
(lp466
F8.405544967784092
aF7.927972529568054
aF6.120563347302827
aF2.242822629669852
aF13.462076666061767
aF4.457721484028483
aF7.308498341694671
aF0.5225252599723619
atp467
a(g1
(lp468
F8.469414451634735
aF7.988789678174909
aF6.169676495024816
aF2.27029886741716
aF13.664573723548376
aF4.550803398960768
aF7.4149688830306895
aF0.5436048103390436
atp469
a(g1
(lp470
F8.245065200252837
aF7.772434911590822
aF5.983490702385022
aF2.154190839543375
aF13.000761256344633
aF4.182264988347884
aF7.1092670898495065
aF0.45437241609637863
atp471
a(g1
(lp472
F8.114110469243407
aF7.648214183979259
aF5.886905318801178
aF2.12501245481872
aF12.64004872051055
aF4.057895617408711
aF6.896864988646757
aF0.4277991647350284
atp473
a(g1
(lp474
F8.267800554451775
aF7.796318218177861
aF6.0104314972899004
aF2.1793143760543368
aF13.141867982655725
aF4.2572298547245015
aF7.159785029580807
aF0.4628745392413982
atp475
a(g1
(lp476
F8.10922580457204
aF7.644613255880766
aF5.887158168409533
aF2.1284267899577127
aF12.772421314730614
aF4.098005737188535
aF6.985041313330419
aF0.4371594550120157
atp477
a(g1
(lp478
F8.46021478821264
aF7.975052529711818
aF6.13857148077091
aF2.2109470685381085
aF13.451021136865458
aF4.380486738423682
aF7.328401201718106
aF0.49166994225894656
atp479
a(g1
(lp480
F8.114491360787321
aF7.648158056571139
aF5.886265464499336
aF2.134024965849352
aF12.636724629285549
aF4.096971262442915
aF6.905437641915394
aF0.45753149436887697
atp481
a.