(lp0
(VAl
p1
(lp2
F8.036949773184219
aF7.576526160464057
aF5.834162668474095
aF2.101171310626337
aF12.32900375384938
aF4.000068982608011
aF6.709837535035096
aF0.4378358743371864
atp3
a(g1
(lp4
F8.382573878862031
aF7.9038770758224866
aF6.091982869114042
aF2.2152113808417093
aF13.191861383522177
aF4.355512280469224
aF7.138488092159027
aF0.49485984558205576
atp5
a(g1
(lp6
F8.098527993238651
aF7.633728589995965
aF5.87622117307002
aF2.122034439523644
aF12.415998657634722
aF4.061404273950371
aF6.739793928001285
aF0.45401283153033295
atp7
a(g1
(lp8
F8.168711706169336
aF7.698975734119248
aF5.920197804227619
aF2.111778319901842
aF12.539077091759683
aF4.03767288514003
aF6.827798081559232
aF0.4317035883990309
atp9
a(g1
(lp10
F7.944963747290948
aF7.488051193816733
aF5.758337041125815
aF2.054117926770974
aF12.142925889619983
aF3.8666053600652437
aF6.646775781532708
aF0.40287092291193344
atp11
a(g1
(lp12
F8.22180384245747
aF7.751161185960842
aF5.970504446504275
aF2.1639602814695347
aF12.803476466155548
aF4.1992107736235855
aF6.94777692357438
aF0.4718870046744523
atp13
a(g1
(lp14
F8.048730841189917
aF7.585960898269277
aF5.83412915770197
aF2.085214832337391
aF12.48553784219972
aF3.9703249991568343
aF6.84310584844391
aF0.41586845866184113
atp15
a(g1
(lp16
F8.16399721106664
aF7.697449179997015
aF5.932547148729011
aF2.15392733837348
aF12.688948830060475
aF4.1546991978810475
aF6.8893502354382905
aF0.46549029741709447
atp17
a(g1
(lp18
F8.159437117517632
aF7.694241272944934
aF5.93362086921658
aF2.160968922319456
aF12.610898604896358
aF4.161252422318727
aF6.822941859757714
aF0.47049443581295075
atp19
a(g1
(lp20
F8.027787474207791
aF7.565990095723169
aF5.819718018297762
aF2.088447454990934
aF12.282486669283076
aF3.954754843925886
aF6.695781657408838
aF0.4236634120921553
atp21
a(g1
(lp22
F8.464748666992609
aF7.98623284683513
aF6.1723435010707695
aF2.266815121157721
aF13.700790624950507
aF4.534873019242703
aF7.418850427070403
aF0.5210243708478012
atp23
a(g1
(lp24
F8.383457738106967
aF7.909871254367391
aF6.115245745351995
aF2.2524008503823993
aF13.477702102380583
aF4.476644097267183
aF7.298717661578767
aF0.5226669115697942
atp25
a(g1
(lp26
F8.047042926564988
aF7.581967277440591
aF5.8238185548898
aF2.0731660010583415
aF12.23651597322048
aF3.905874967545586
aF6.684744734574369
aF0.40830226886220655
atp27
a(g1
(lp28
F7.915494084787555
aF7.453602172917452
aF5.707553963600899
aF1.998377775962405
aF11.809878036232321
aF3.69702045762715
aF6.502240546907613
aF0.3746152798834896
atp29
a(g1
(lp30
F8.489699108944347
aF8.010052888360507
aF6.194253372936921
aF2.2974865736560375
aF13.637208238491048
aF4.6163807041153815
aF7.333524742454647
aF0.556763332244296
atp31
a(g1
(lp32
F8.245719535075
aF7.778259798100649
aF6.006715228517515
aF2.193564188374379
aF13.204494137643763
aF4.299386496188803
aF7.203247125288169
aF0.4835537059004391
atp33
a(g1
(lp34
F8.104995068650606
aF7.642401311112353
aF5.890841774481353
aF2.1346331937766965
aF12.543051742273157
aF4.08783249487651
aF6.8114305901192935
aF0.4484979190711682
atp35
a(g1
(lp36
F8.01176194542024
aF7.549739889546569
aF5.802132146177449
aF2.0713261392146105
aF12.131483639883497
aF3.9105529038785765
aF6.599437015518449
aF0.41394487401062574
atp37
a(g1
(lp38
F8.102608276242547
aF7.6339463603236775
aF5.862318550047937
aF2.0877154617703866
aF12.440670006924702
aF3.9613368232451256
aF6.800684376188087
aF0.4085405389691232
atp39
a(g1
(lp40
F8.456851961778677
aF7.97860994624299
aF6.168836802998363
aF2.287210060132334
aF13.453341854469699
aF4.568776643924394
aF7.227445325484921
aF0.5570611297860752
atp41
a(g1
(lp42
F8.072179717793528
aF7.614707660474185
aF5.880480866048154
aF2.1417907375003047
aF12.547858763886055
aF4.124815092650688
aF6.804439389847262
aF0.4661765464739506
atp43
a(g1
(lp44
F8.025960084360836
aF7.567726112819582
aF5.832909514366177
aF2.1118393118603858
aF12.358808963361636
aF4.017676048183022
aF6.703082240272178
aF0.43112067291605405
atp45
a(g1
(lp46
F7.804288391884469
aF7.3521687729031635
aF5.642306417789528
aF1.996288735132423
aF11.657008032964892
aF3.682544688157808
aF6.395173274084654
aF0.3791511512720849
atp47
a(g1
(lp48
F8.161795969329091
aF7.6961429028014905
aF5.932073829641602
aF2.1411686358406032
aF12.610185645557424
aF4.122449430371572
aF6.834755766613667
aF0.4540920398980044
atp49
a(g1
(lp50
F11.617343932077755
aF10.963674465197483
aF8.487164611695695
aF3.1482332669056734
aF21.543080434273644
aF8.36459516357095
aF11.024215655429774
aF1.23359509354082
atp51
a(g1
(lp52
F11.587487543996009
aF10.939562644790495
aF8.482848554697144
aF3.1716967860462266
aF21.59601164226031
aF8.460656443589855
aF11.032456784433588
aF1.2724036807870729
atp53
a(g1
(lp54
F11.621434159307064
aF10.963739699801817
aF8.472054936497738
aF3.113356019662755
aF21.556259455963133
aF8.225861877845754
aF11.12281822684081
aF1.18860920949285
atp55
a(g1
(lp56
F11.543606666672277
aF10.892450639329429
aF8.424837373130933
aF3.1062653516717784
aF21.272690722002267
aF8.179238718566305
aF10.922498594927369
aF1.186707099051745
atp57
a(g1
(lp58
F11.55949937497603
aF10.90460085972305
aF8.423202859228452
aF3.0871097575236948
aF21.279549789949062
aF8.10465984719313
aF10.978453061689772
aF1.1634559343140711
atp59
a(g1
(lp60
F11.68802111642189
aF11.02976369439873
aF8.533874085956864
aF3.1503188935770066
aF21.88680574623431
aF8.400537952453465
aF11.269802081195763
aF1.2245946584564549
atp61
a(g1
(lp62
F11.61586395809927
aF10.963266477737097
aF8.489905143864718
aF3.154943270134809
aF21.67154226609134
aF8.402297179530605
aF11.123570129637502
aF1.2468469433781908
atp63
a(g1
(lp64
F11.538502060441711
aF10.887210107976001
aF8.420338182300503
aF3.1110964261700675
aF21.283868918894036
aF8.194929799930637
aF10.94378148887153
aF1.199402918448898
atp65
a(g1
(lp66
F11.73718222583546
aF11.078375153199701
aF8.58062998021762
aF3.187864182524565
aF22.07398067392039
aF8.56758980891262
aF11.317861099289075
aF1.2721860636664586
atp67
a(g1
(lp68
F11.523808341089042
aF10.87792416262935
aF8.42917778569892
aF3.137594943377188
aF21.325071455890477
aF8.301167488390412
aF10.91250248954224
aF1.2322145581400392
atp69
a(g1
(lp70
F11.772038911103657
aF11.10799735403673
aF8.591123689486281
aF3.169757117721696
aF22.182519142779167
aF8.50076868816708
aF11.441234155695202
aF1.2415628143611304
atp71
a(g1
(lp72
F11.6741500878716
aF11.02331821226323
aF8.554361256288116
aF3.207277611352226
aF22.03883878117706
aF8.637350878922032
aF11.275706508983713
aF1.3074429300520074
atp73
a(g1
(lp74
F11.749734247249926
aF11.086972361860273
aF8.574930218604921
aF3.1646068536822805
aF22.08735073478949
aF8.473738341470007
aF11.387989204619172
aF1.241042409661119
atp75
a(g1
(lp76
F11.437174403533179
aF10.785731743126446
aF8.317158737565327
aF3.010788092229075
aF20.743174541172248
aF7.7611355041547165
aF10.749585654684841
aF1.0728459774798096
atp77
a(g1
(lp78
F11.67261991401573
aF11.01551867388887
aF8.527790471520976
aF3.1708648645830477
aF21.802033539916135
aF8.467822022275042
aF11.174997804146253
aF1.2568481119547803
atp79
a(g1
(lp80
F11.804533880377145
aF11.150967689558748
aF8.670626318051891
aF3.2847262080964756
aF22.65535594452828
aF9.002744689175863
aF11.543874467857515
aF1.3957665925511256
atp81
a(g1
(lp82
F11.66032511804958
aF11.005690562849985
aF8.525727917224225
aF3.1786997466831495
aF21.800282843045327
aF8.502539747979624
aF11.164701594692279
aF1.2736758601388516
atp83
a(g1
(lp84
F11.467017651744468
aF10.815682634421629
aF8.35039241714041
aF3.056827128900044
aF20.886198084866695
aF7.940177325480385
aF10.765940410855546
aF1.1294151684221014
atp85
a(g1
(lp86
F11.559855884401694
aF10.905167570086313
aF8.425319489496985
aF3.090454934929724
aF21.322452854511265
aF8.107038229062638
aF11.011417149676106
aF1.1637766420923992
atp87
a(g1
(lp88
F11.812669504350078
aF11.15218461729866
aF8.647047741821776
aF3.225190130941264
aF22.50371779067507
aF8.747377963432994
aF11.545683450669502
aF1.304874321978572
atp89
a(g1
(lp90
F11.724222409247822
aF11.063528946573562
aF8.557912231404574
aF3.150555598141243
aF21.975467721283827
aF8.405699105461284
aF11.323144575795181
aF1.2168647206217034
atp91
a(g1
(lp92
F11.586480772603792
aF10.937105013326343
aF8.475750289726644
aF3.1596931153940506
aF21.51803551850197
aF8.4028629632954
aF10.995558453831421
aF1.2546773061443817
atp93
a(g1
(lp94
F11.557701740389795
aF10.902269471247209
aF8.42010911630998
aF3.0832857956509288
aF21.269180888727313
aF8.080853619722546
aF10.971402506052822
aF1.1511845298376842
atp95
a(g1
(lp96
F11.617745141861553
aF10.96264393457966
aF8.479332107025739
aF3.1224987601375034
aF21.586058642543563
aF8.2631831149096
aF11.112132893134985
aF1.1948578340777574
atp97
a(g1
(lp98
F12.543610981401256
aF11.801077720851126
aF9.01346831000303
aF3.2110092582097396
aF24.125682597264774
aF8.854405323882846
aF12.715470853723202
aF1.2434937906057981
atp99
a(g1
(lp100
F12.696566107904113
aF11.950306031020405
aF9.145442493409087
aF3.283473767491129
aF24.91191188916054
aF9.218374630443503
aF13.108457673414934
aF1.3188185961068868
atp101
a(g1
(lp102
F12.66030041729743
aF11.915350126811445
aF9.115899265324083
aF3.2675031099838585
aF24.73665423424718
aF9.138513794567068
aF13.014097411188427
aF1.2997068082714776
atp103
a(g1
(lp104
F12.519678950974724
aF11.779005039123849
aF8.998496342340022
aF3.2067077048809134
aF24.03885622576588
aF8.826555163214964
aF12.65923877584617
aF1.2374895891802926
atp105
a(g1
(lp106
F12.585296872266131
aF11.843757976267096
aF9.060439530118462
aF3.2588921184651527
aF24.38097970309504
aF9.067130597672287
aF12.795891526909905
aF1.30357646765391
atp107
a(g1
(lp108
F12.678361174200049
aF11.932856841518385
aF9.133475810214778
aF3.2914107139836872
aF24.815844906255222
aF9.240318657197188
aF13.027074552409578
aF1.3345722337946524
atp109
a(g1
(lp110
F12.69459246738164
aF11.946618816043662
aF9.135731662129164
aF3.2669824200914395
aF24.859398533446964
aF9.1460857018026
aF13.106039198779165
aF1.2953108254020669
atp111
a(g1
(lp112
F12.600996433926223
aF11.855327391439708
aF9.053520394865634
aF3.20745227922878
aF24.39644557315203
aF8.863378404078817
aF12.892902600194049
aF1.2182266698858077
atp113
a(g1
(lp114
F12.64513217132072
aF11.897555787686075
aF9.090353616478081
aF3.2406344077896563
aF24.584536021989287
aF9.012902121069065
aF12.968474909299337
aF1.2666567004973421
atp115
a(g1
(lp116
F12.606695043921036
aF11.8597657691145
aF9.054576144536545
aF3.2106923216491094
aF24.387035569570184
aF8.878236801843572
aF12.887051001916834
aF1.228855102832351
atp117
a(g1
(lp118
F12.738721993345232
aF11.988099029911986
aF9.170395496018482
aF3.3003633326776622
aF25.037707719177767
aF9.297988307937088
aF13.17234488610779
aF1.3438903253400578
atp119
a(g1
(lp120
F12.75707839171457
aF12.005887104907416
aF9.184764266055922
aF3.2970035968196285
aF25.1456621802907
aF9.293146277799355
aF13.239737335974139
aF1.3262361307455965
atp121
a(g1
(lp122
F12.608365483151367
aF11.859864738595105
aF9.05016778985917
aF3.20664341164912
aF24.356071270646293
aF8.858356994750366
aF12.88273373349194
aF1.2262809087825393
atp123
a(g1
(lp124
F12.485281862359903
aF11.742280844149837
aF8.954290144609423
aF3.165521563936507
aF23.780181711057885
aF8.644499723148868
aF12.572573196728355
aF1.1953860019972276
atp125
a(g1
(lp126
F12.731370745441582
aF11.982182849211563
aF9.167254554904288
aF3.2857455501384263
aF25.05782652814385
aF9.242265443731739
aF13.196269809397533
aF1.3130045318561645
atp127
a(g1
(lp128
F12.832731357326614
aF12.07768963190404
aF9.239957117781573
aF3.313609058349946
aF25.483620269564877
aF9.398567681854793
aF13.441786059759542
aF1.3437073081026605
atp129
a(g1
(lp130
F12.615213812806843
aF11.869185029855776
aF9.068211899534957
aF3.2374036645468927
aF24.437761456277453
aF8.989034913418685
aF12.882124014240873
aF1.2738566834903533
atp131
a(g1
(lp132
F12.542556770065742
aF11.802412118564419
aF9.021142017260154
aF3.220855776946976
aF24.170355930117108
aF8.900289209605186
aF12.728637432820113
aF1.2596071246226244
atp133
a(g1
(lp134
F12.689531036812596
aF11.941068971860538
aF9.130778196012834
aF3.2740736811550026
aF24.808761309015114
aF9.171176537257232
aF13.06157363036254
aF1.31113073361359
atp135
a(g1
(lp136
F12.761204686683252
aF12.008783394530418
aF9.18289827857542
aF3.2908599532532046
aF25.12736424465015
aF9.269593891703167
aF13.248420583657849
aF1.3237111995445887
atp137
a(g1
(lp138
F12.606100004062387
aF11.85791379163297
aF9.049670975929095
aF3.2179368214367488
aF24.325970102726632
aF8.903294317420045
aF12.852903190066995
aF1.2532019065029156
atp139
a(g1
(lp140
F12.674097385991672
aF11.92592695732312
aF9.116261515803664
aF3.2632691068622615
aF24.721949773276908
aF9.121470586945888
aF13.026253839577707
aF1.3011009295074356
atp141
a(g1
(lp142
F12.673752276446972
aF11.92272753571716
aF9.10351871438373
aF3.2417225677813857
aF24.650445972933646
aF9.02891490104122
aF13.024078390302492
aF1.2735460569618078
atp143
a(g1
(lp144
F12.585434134272928
aF11.840478317274686
aF9.043780686509738
aF3.2218669633919856
aF24.302264758132228
aF8.91239477578775
aF12.81456678228465
aF1.251994544389275
atp145
a(g1
(lp146
F12.479273576857135
aF11.729806367744773
aF8.919101966488096
aF3.1020168047242693
aF23.602191700467127
aF8.378818265063813
aF12.567980724914047
aF1.106728987011825
atp147
a(g1
(lp148
F12.553051312578825
aF11.807768880501158
aF9.012214050417498
aF3.207318757556482
aF24.1115436693516
aF8.833163058100615
aF12.724173097226501
aF1.2397151659246124
atp149
a(g1
(lp150
F12.7380817833533
aF11.988689887751988
aF9.174282050909575
aF3.2974518286009054
aF25.076176762491375
aF9.284905761917035
aF13.190430781224581
aF1.327201119773114
atp151
a(g1
(lp152
F12.654892693698804
aF11.906360670190523
aF9.096273043056915
aF3.245482631764062
aF24.614570525000623
aF9.035649170485211
aF12.988009861591253
aF1.2770364793699476
atp153
a(g1
(lp154
F12.437367209344998
aF11.692081692209758
aF8.89720208732543
aF3.1133755756110553
aF23.452313325041807
aF8.414107456858092
aF12.452305873406893
aF1.1382330520616861
atp155
a(g1
(lp156
F12.56762068325472
aF11.818534338468215
aF9.007900723259837
aF3.1709284071163077
aF24.12227791169725
aF8.68747934857661
aF12.786483543123431
aF1.1770111437150796
atp157
a(g1
(lp158
F12.699008999643274
aF11.9494641425437
aF9.134149478255143
aF3.2613436452023543
aF24.849875481455022
aF9.120045023715548
aF13.113362457767645
aF1.2866761312204429
atp159
a(g1
(lp160
F12.60246669164875
aF11.853321779843403
aF9.042893734972257
aF3.2044471587359658
aF24.30425588306486
aF8.838030729650276
aF12.85045965740891
aF1.2214808571417184
atp161
a(g1
(lp162
F12.556549303762127
aF11.809083779121936
aF9.006094134283487
aF3.191448620166287
aF24.06985522120129
aF8.772620812444789
aF12.721096059095057
aF1.2210804191768043
atp163
a(g1
(lp164
F12.605848293248128
aF11.859620280742979
aF9.058240297321007
aF3.2264895304122354
aF24.38723911142428
aF8.939316228495018
aF12.864739525663499
aF1.25532754780004
atp165
a(g1
(lp166
F12.65370333612935
aF11.904346846162953
aF9.09137790539942
aF3.235051636789823
aF24.588891235362524
aF8.991510156127934
aF12.983467969674107
aF1.2569546753414857
atp167
a(g1
(lp168
F12.622371630996522
aF11.870617415562183
aF9.049505510199635
aF3.1921826577623182
aF24.352055577545446
aF8.79847274920003
aF12.9157156871283
aF1.2083478470084141
atp169
a(g1
(lp170
F12.681956553142154
aF11.930852042061803
aF9.113285573995954
aF3.2575505736193535
aF24.69181081837298
aF9.094065867753793
aF13.020674198129063
aF1.2948216102609074
atp171
a(g1
(lp172
F12.549306516515939
aF11.804098874305762
aF9.010020873983446
aF3.2144450608244473
aF24.068641001803858
aF8.864617135650281
aF12.684312017482595
aF1.2598298248430444
atp173
a(g1
(lp174
F12.587527957826174
aF11.836621982038453
aF9.018707715617541
aF3.165430562274447
aF24.184916685065584
aF8.67960755469043
aF12.837105609453399
aF1.1697790832350177
atp175
a(g1
(lp176
F12.69181604721926
aF11.938456001967781
aF9.111066561508354
aF3.233327586672685
aF24.711842621504083
aF8.998829614294657
aF13.077368825385737
aF1.2555701326659294
atp177
a(g1
(lp178
F12.676943807873498
aF11.92994198802036
aF9.125551599398797
aF3.28017330435387
aF24.769397353170305
aF9.191726123577082
aF13.024852618867541
aF1.3230456905841275
atp179
a(g1
(lp180
F12.528709019071018
aF11.783398324232836
aF8.98582781341746
aF3.1688785073779564
aF23.982193884924552
aF8.672410799653242
aF12.69129103899663
aF1.181910804116803
atp181
a(g1
(lp182
F12.5552777279612
aF11.809704403281659
aF9.011952595561029
aF3.196415383887975
aF24.1185014813596
aF8.796850877353116
aF12.737615008975832
aF1.2230445348130976
atp183
a(g1
(lp184
F12.727982177320396
aF11.977520310155755
aF9.160724864041773
aF3.288099153892628
aF24.99090256595711
aF9.243204072506272
aF13.152402021691291
aF1.3206653972273954
atp185
a(g1
(lp186
F12.590180720906444
aF11.840185018562602
aF9.027425562523685
aF3.194457011468878
aF24.203496527987316
aF8.791627168057
aF12.808548822105985
aF1.216203755216174
atp187
a(g1
(lp188
F12.568766063076215
aF11.821774873193394
aF9.018324339080898
aF3.190206356380051
aF24.16585917348489
aF8.773306701507765
aF12.782838706863828
aF1.2095979647450925
atp189
a(g1
(lp190
F12.6754940259792
aF11.925821848637323
aF9.111227786172485
aF3.248183797108844
aF24.70549811488658
aF9.056851745960948
aF13.035891872556817
aF1.27333956904987
atp191
a(g1
(lp192
F12.710636502948649
aF11.95755997408863
aF9.131394155138603
aF3.254721046462256
aF24.81475554186782
aF9.09355506645295
aF13.111385725393868
aF1.2848219509330914
atp193
a(g1
(lp194
F12.458235497867019
aF11.711359718790868
aF8.909609100576816
aF3.105447592646565
aF23.548497846940315
aF8.387570390565573
aF12.524325537529602
aF1.1131878130586828
atp195
a(g1
(lp196
F12.609003379157643
aF11.86146155099553
aF9.05579585273142
aF3.2214649098571617
aF24.378125577426427
aF8.912702631545708
aF12.874999457044579
aF1.2489009281871382
atp197
a(g1
(lp198
F12.714783429300097
aF11.964488093137366
aF9.147807145280641
aF3.2798145029487142
aF24.90880876785203
aF9.200574194582273
aF13.123888509601798
aF1.3154970085189532
atp199
a(g1
(lp200
F12.54022262857142
aF11.796246174111488
aF9.003345463193467
aF3.189917662137592
aF24.08955340724588
aF8.764346260344432
aF12.723181788388423
aF1.206902552452475
atp201
a(g1
(lp202
F12.454365757847315
aF11.710148128065178
aF8.920873291882508
aF3.145264895027405
aF23.57098927489296
aF8.546577492866094
aF12.468136235965014
aF1.174064857348389
atp203
a(g1
(lp204
F12.578201480547264
aF11.829774295324883
aF9.020705092075215
aF3.1803762122865673
aF24.18870498873603
aF8.73725644821483
aF12.814034847966393
aF1.1935350075055595
atp205
a(g1
(lp206
F12.620410850743111
aF11.87106176059495
aF9.061261519328838
aF3.234505069568515
aF24.37180366563162
aF8.969843690123549
aF12.859418595353187
aF1.2784509738676373
atp207
a(g1
(lp208
F12.508099161419867
aF11.760498852931514
aF8.95640249213467
aF3.14539978234211
aF23.797600612115925
aF8.567190700026782
aF12.624030469810236
aF1.1649103127035856
atp209
a(g1
(lp210
F12.590301197009971
aF11.844086322500976
aF9.04371594685707
aF3.2159039716733524
aF24.301907665831873
aF8.88959323711616
aF12.82224570092911
aF1.2410376674081771
atp211
a(g1
(lp212
F12.597130205249377
aF11.85012475517667
aF9.047534805409764
aF3.2233226610178094
aF24.309131020732455
aF8.920588452158471
aF12.825547351186215
aF1.2589202113674083
atp213
a(g1
(lp214
F12.601214800439763
aF11.853260067512108
aF9.04820107874077
aF3.226928653154924
aF24.30246606374993
aF8.932325967360008
aF12.822555200783416
aF1.267532275411033
atp215
a(g1
(lp216
F12.589782861366645
aF11.840109882450562
aF9.025663617508693
aF3.170158814961581
aF24.23287269347181
aF8.703035073187067
aF12.85841097129654
aF1.172432695167453
atp217
a(g1
(lp218
F12.61996652772838
aF11.871417185489152
aF9.061718180899128
aF3.216277194529977
aF24.419569769827657
aF8.898397711236374
aF12.902880854003417
aF1.2339802813670855
atp219
a(g1
(lp220
F12.52943715079669
aF11.780010819668133
aF8.968076530214216
aF3.136964032882603
aF23.883848960138966
aF8.541242592882977
aF12.692748590551039
aF1.1458975975417036
atp221
a(g1
(lp222
F12.572569938850169
aF11.82121091047593
aF9.003481730227032
aF3.164041754079187
aF24.07274189652092
aF8.66368250741057
aF12.776010326066318
aF1.1770895049608687
atp223
a(g1
(lp224
F12.645724986607283
aF11.89825520457101
aF9.093550534802397
aF3.25556635257529
aF24.580244581990662
aF9.078516684546194
aF12.94110042193448
aF1.2956351722915707
atp225
a(g1
(lp226
F12.536821152321016
aF11.789926737019531
aF8.987444548494079
aF3.168337087512892
aF23.984155696396634
aF8.669656188096324
aF12.701910647353866
aF1.1856047376398193
atp227
a(g1
(lp228
F12.518389861340326
aF11.768785560830837
aF8.960547845979416
aF3.1586217190796817
aF23.78816092405663
aF8.617164943731119
aF12.603725307198804
aF1.1893143194492644
atp229
a(g1
(lp230
F12.635264024688972
aF11.884897481422477
aF9.068401027150614
aF3.209413433548708
aF24.463806518497194
aF8.879461888609097
aF12.946625797055056
aF1.2259013584682867
atp231
a(g1
(lp232
F12.666124328446283
aF11.916977414486492
aF9.10373950936752
aF3.236515361967311
aF24.679327171448612
aF9.005672276336327
aF13.030501487490353
aF1.2499342581817003
atp233
a(g1
(lp234
F12.4935146093529
aF11.74951158089706
aF8.956934492125505
aF3.152508846152474
aF23.817273798781375
aF8.591307494353908
aF12.612551093572547
aF1.1654850398938417
atp235
a(g1
(lp236
F12.632084178821447
aF11.884759463199398
aF9.07987923332748
aF3.24142728942731
aF24.511676758460926
aF9.007160895327985
aF12.92322343699807
aF1.2733228471936004
atp237
a(g1
(lp238
F12.755781475679852
aF12.004763762256683
aF9.182636336794554
aF3.2837972208380934
aF25.151917365023074
aF9.238646481132465
aF13.26101545273591
aF1.3000782723609015
atp239
a(g1
(lp240
F12.627789325618153
aF11.87877118676006
aF9.068366641023188
aF3.227212827069778
aF24.446931692653777
aF8.945593317968315
aF12.908106973074524
aF1.2546881355304944
atp241
a(g1
(lp242
F12.571672648208073
aF11.82964591016948
aF9.043940353851482
aF3.2380532224576695
aF24.296321505525626
aF8.976244085598807
aF12.777326520385175
aF1.276009436706611
atp243
a(g1
(lp244
F12.56694389667379
aF11.824457861081111
aF9.038015153269003
aF3.2335660467136615
aF24.25666635374233
aF8.95435196360032
aF12.756614597853995
aF1.2692736449534185
atp245
a(g1
(lp246
F12.724612120914843
aF11.974837195019619
aF9.15864846893087
aF3.2807364962075236
aF24.989798310890073
aF9.211786701466062
aF13.164889134602193
aF1.3073817726613697
atp247
a(g1
(lp248
F12.697481241839508
aF11.953034303512139
aF9.156222203864498
aF3.308735969102145
aF24.960108139591615
aF9.324997940264907
aF13.086245828999854
aF1.3532407835771967
atp249
a(g1
(lp250
F12.527764495939568
aF11.787893991903974
aF9.013705749789747
aF3.245561532937689
aF24.081817746974302
aF8.983150528071915
aF12.625396959540176
aF1.2986394143017104
atp251
a(g1
(lp252
F12.555114644851923
aF11.806677611757591
aF9.00026302168162
aF3.1798583983559046
aF24.043724098489093
aF8.722718182765014
aF12.722208683802098
aF1.2003035266573538
atp253
a(g1
(lp254
F12.620269607847106
aF11.871049148981875
aF9.05970327730447
aF3.2189237302285125
aF24.388435684142028
aF8.910787634074381
aF12.88662485965142
aF1.2475343887740709
atp255
a(g1
(lp256
F12.611081059507729
aF11.86142243297805
aF9.048613649585853
aF3.2042972017328024
aF24.340934809300855
aF8.843733176593034
aF12.877296535855612
aF1.2218175570017615
atp257
a(g1
(lp258
F12.537133005194075
aF11.794716369051942
aF9.00943808127954
aF3.216108836635112
aF24.083722026783455
aF8.869497439388073
aF12.678599546853315
aF1.2527126413828387
atp259
a(g1
(lp260
F12.6236129784069
aF11.872754296102281
aF9.052750324779968
aF3.1851471188093456
aF24.388476334793676
aF8.77837776929297
aF12.94074535386588
aF1.19144970035653
atp261
a(g1
(lp262
F12.621753147206189
aF11.879189763843355
aF9.090414944148595
aF3.2649824602919275
aF24.577836887661483
aF9.108461649243667
aF12.904651371470578
aF1.296450144848036
atp263
a(g1
(lp264
F12.569229007247852
aF11.825420476372425
aF9.033726884325926
aF3.222765185929303
aF24.23963732955029
aF8.909515627242504
aF12.772867233269084
aF1.256532470217742
atp265
a(g1
(lp266
F12.624908620672123
aF11.878575519558938
aF9.075388108173689
aF3.232036783750733
aF24.49566067756274
aF8.974714580031137
aF12.924898130210169
aF1.2605306204969757
atp267
a(g1
(lp268
F12.643076822153155
aF11.897486273832312
aF9.099874628454835
aF3.276307928982449
aF24.602255719851748
aF9.15867608730782
aF12.922063441424328
aF1.3252175817112015
atp269
a(g1
(lp270
F12.640204217373322
aF11.89293782713521
aF9.087662912288858
aF3.2446188509288856
aF24.56406856276133
aF9.026118464568572
aF12.953704892280655
aF1.2748884997966599
atp271
a(g1
(lp272
F12.588830467398372
aF11.842374254608645
aF9.042578604359594
aF3.223269104489623
aF24.27872436955932
aF8.919603853981808
aF12.799379511649265
aF1.258620873998486
atp273
a(g1
(lp274
F12.604019375180023
aF11.856922292723203
aF9.053589098389885
aF3.2250118141359567
aF24.348784924294815
aF8.934183098094078
aF12.841731116405048
aF1.2576245343080157
atp275
a(g1
(lp276
F12.58832431435442
aF11.838862076881256
aF9.027209699923523
aF3.1938429156914108
aF24.205218687992666
aF8.795092352962383
aF12.811094487745905
aF1.2199372472995917
atp277
a(g1
(lp278
F12.55525913395848
aF11.80880585179699
aF9.007642730044031
aF3.185039137261604
aF24.10030632837982
aF8.748738155193394
aF12.742894946570035
aF1.203140741430318
atp279
a(g1
(lp280
F12.60282826150773
aF11.851759166637132
aF9.03602304389735
aF3.202883452120102
aF24.23103766276891
aF8.836630317063507
aF12.817174951959203
aF1.236576202212212
atp281
a(g1
(lp282
F12.590435963263742
aF11.84415882821051
aF9.043265588815823
aF3.2165588712972375
aF24.295739676466617
aF8.892356942117718
aF12.82000560336033
aF1.2458281323860043
atp283
a(g1
(lp284
F12.558707943708079
aF11.811796998710358
aF9.009970444711133
aF3.1911885365230277
aF24.100423230329763
aF8.771405906410603
aF12.733724335804174
aF1.2120438512421687
atp285
a(g1
(lp286
F12.665276445526667
aF11.916372262946057
aF9.103194639060545
aF3.23928180442992
aF24.668144953882063
aF9.018780411383771
aF13.030014805096016
aF1.263375126658329
atp287
a(g1
(lp288
F12.69303067238761
aF11.94366664903933
aF9.131543778599996
aF3.2778513101979696
aF24.800377657125896
aF9.183984263804698
aF13.051346016161387
aF1.3178735980404213
atp289
a(g1
(lp290
F12.627591704728188
aF11.880247512241151
aF9.07400955769928
aF3.2261582473840353
aF24.49439911751016
aF8.945771233061667
aF12.93652903369333
aF1.2467592648689931
atp291
a(g1
(lp292
F12.613417822114963
aF11.866212654716765
aF9.060187535254922
aF3.2148902810831514
aF24.41169602010306
aF8.89679838207704
aF12.896714983782088
aF1.233565353464419
atp293
a(g1
(lp294
F12.596034336670458
aF11.846346112951482
aF9.0341521307213
aF3.1994777256582214
aF24.242268129398173
aF8.821277456742447
aF12.825462394365303
aF1.2268280232038096
atp295
a(g1
(lp296
F12.590929739402743
aF11.841696869881105
aF9.029027122983006
aF3.1847169221110705
aF24.236450568208756
aF8.75829646793816
aF12.848926668060953
aF1.2028830969980255
atp297
a(g1
(lp298
F12.59563439719873
aF11.851868687924247
aF9.061308904183816
aF3.2546989611081143
aF24.375235463334498
aF9.049158912818076
aF12.81094410865703
aF1.3017960873284662
atp299
a(g1
(lp300
F12.60359515936396
aF11.855860330296979
aF9.050229511432413
aF3.220730502917018
aF24.327231952402656
aF8.911501174095307
aF12.843911801922275
aF1.255903221122347
atp301
a(g1
(lp302
F12.535550240589261
aF11.788998070671395
aF8.987612408960505
aF3.172552737053503
aF23.980321588973332
aF8.68911163095728
aF12.696077051191343
aF1.1957406621436137
atp303
a(g1
(lp304
F12.523988852703582
aF11.780402281418556
aF8.989135819993795
aF3.1832561379493214
aF23.996164525671645
aF8.725850988689569
aF12.681196264424003
aF1.2045426611899164
atp305
a(g1
(lp306
F12.62891490708764
aF11.879359458288402
aF9.065809950861528
aF3.2141227027858763
aF24.439915266245563
aF8.898013311025595
aF12.928483549165797
aF1.2369618758082934
atp307
a(g1
(lp308
F12.670879299019768
aF11.922802671957799
aF9.114008233338376
aF3.2585129505716934
aF24.71884417748506
aF9.099158368958115
aF13.026746696222897
aF1.2910800636947675
atp309
a(g1
(lp310
F12.57388942458637
aF11.833486951158958
aF9.052864407280447
aF3.2459789197712783
aF24.358126761638463
aF9.015376565124622
aF12.794678005368771
aF1.281376037688267
atp311
a(g1
(lp312
F12.552413656449069
aF11.806728731081835
aF9.008827522064285
aF3.1946634410278296
aF24.094472942488096
aF8.787612149389634
aF12.729602003196845
aF1.222271958792609
atp313
a(g1
(lp314
F12.63775212833108
aF11.891200873723104
aF9.089305071762633
aF3.254568291563327
aF24.55847243264254
aF9.068422018077351
aF12.923959602393337
aF1.2892248876639663
atp315
a(g1
(lp316
F12.66596018541691
aF11.919084839475534
aF9.116437868215481
aF3.2831237409751592
aF24.697059743619327
aF9.197783872164415
aF12.976092147212903
aF1.333700418999732
atp317
a(g1
(lp318
F12.607022046495567
aF11.855815478439114
aF9.037845437473287
aF3.188574519107359
aF24.275121762163796
aF8.778465332166077
aF12.861046888834238
aF1.2029274203816096
atp319
a(g1
(lp320
F12.567195543788047
aF11.81993930508402
aF9.016509590678833
aF3.1937916745104236
aF24.13613520755557
aF8.790429085892159
aF12.756309590179487
aF1.2205671334663601
atp321
a(g1
(lp322
F12.572569325060606
aF11.824446689270866
aF9.017720963708664
aF3.1918971148062196
aF24.14138206123249
aF8.78267654281549
aF12.767966362586732
aF1.2194127658997034
atp323
a(g1
(lp324
F12.620146751961192
aF11.8745403580129
aF9.074324186639862
aF3.2332263629381965
aF24.494263830626668
aF8.975762573230684
aF12.910782143782834
aF1.2544226904715106
atp325
a(g1
(lp326
F12.640564160254272
aF11.892619495340439
aF9.084310075046332
aF3.2342518267924842
aF24.549431346891122
aF8.983905169899607
aF12.955893777743068
aF1.2566870805772266
atp327
a(g1
(lp328
F12.58174927791296
aF11.833844044052375
aF9.028200407788404
aF3.1987278706502194
aF24.20980379838924
aF8.81261711602499
aF12.793177391327182
aF1.2191521861985255
atp329
a(g1
(lp330
F12.570597656730884
aF11.823451513139865
aF9.02112043733332
aF3.2020412923885964
aF24.156847185719318
aF8.820421166430929
aF12.755516251941197
aF1.2286854469618653
atp331
a(g1
(lp332
F12.635621790351733
aF11.887560908111425
aF9.07900868768442
aF3.231214433066014
aF24.51175821382747
aF8.969766000601592
aF12.938332290727587
aF1.2561324921849395
atp333
a(g1
(lp334
F12.703490600233483
aF11.954452931943479
aF9.143083195558955
aF3.287894468991443
aF24.866628733252384
aF9.231510994029628
aF13.074517356285265
aF1.3293155716734952
atp335
a(g1
(lp336
F12.649528184709007
aF11.898879566560355
aF9.080657066330929
aF3.2133369130294684
aF24.54608675719979
aF8.90118894646255
aF12.990376944557813
aF1.2232704712136602
atp337
a(g1
(lp338
F12.602079241979538
aF11.854162516143694
aF9.045854854724325
aF3.2026723230250336
aF24.33155858670117
aF8.841588022827734
aF12.874255598617802
aF1.2244807563924973
atp339
a(g1
(lp340
F12.567794304999722
aF11.82419090554897
aF9.032365840686976
aF3.2158939441353946
aF24.240030158836017
aF8.881742556883564
aF12.775713948413832
aF1.240926198684542
atp341
a(g1
(lp342
F12.576418937824956
aF11.829026476384291
aF9.023171413230791
aF3.1892522229699107
aF24.191778400808865
aF8.778237125595947
aF12.800793616718684
aF1.2103484800129274
atp343
a(g1
(lp344
F12.590795965924917
aF11.843576423239144
aF9.03924253115131
aF3.2099393503761506
aF24.27643327043377
aF8.865483686530935
aF12.82384403434611
aF1.2376671739823877
atp345
a(g1
(lp346
F12.552259560058323
aF11.81342711150643
aF9.036762255646549
aF3.229414428193579
aF24.288702376596543
aF8.935599744075295
aF12.77565950761447
aF1.2538482671136324
atp347
a(g1
(lp348
F12.600727358721983
aF11.857921609580808
aF9.068940498077296
aF3.2533773312670204
aF24.43851181122106
aF9.0523126841386
aF12.846300428828668
aF1.2924116298259551
atp349
a(g1
(lp350
F12.461733126386452
aF11.7208965509095
aF8.94065326069206
aF3.160457278754003
aF23.70598980287665
aF8.616346775854149
aF12.519244583120612
aF1.1841092234915536
atp351
a(g1
(lp352
F12.436004703092365
aF11.691322858952205
aF8.89919911575169
aF3.122488546372738
aF23.452222108914704
aF8.445868455560262
aF12.437816672669443
aF1.1479994931255098
atp353
a(g1
(lp354
F12.529914543119759
aF11.787139917043291
aF8.996661916267383
aF3.1772557611915406
aF24.06221619316996
aF8.713779253125203
aF12.722616818558524
aF1.1872169264920196
atp355
a(g1
(lp356
F12.59250028727944
aF11.8470395054542
aF9.048459572129268
aF3.2226489940001843
aF24.32792054124546
aF8.920734978120963
aF12.83316738184
aF1.2546535252169682
atp357
a(g1
(lp358
F12.470021655689132
aF11.73022851249026
aF8.954238854711084
aF3.17705510435355
aF23.790339293499233
aF8.68232836474743
aF12.538988545805102
aF1.1977793399196732
atp359
a(g1
(lp360
F12.398071252724126
aF11.657860677066695
aF8.881939890485292
aF3.1271558110617894
aF23.35740921787835
aF8.453869642463827
aF12.356093286616064
aF1.157911185980215
atp361
a(g1
(lp362
F12.543182933302521
aF11.796969183259009
aF8.998113663995204
aF3.1889206069781038
aF24.022027431870303
aF8.758359963084706
aF12.692528200014856
aF1.2172693373243597
atp363
a(g1
(lp364
F12.662732175014677
aF11.913364964995038
aF9.098309369592277
aF3.2282782179786302
aF24.650383075166893
aF8.973587246536125
aF13.032323851153143
aF1.244538057548387
atp365
a(g1
(lp366
F12.617053212735565
aF11.869426522978452
aF9.062339956443791
aF3.218837866188787
aF24.421038396680576
aF8.913437137907952
aF12.904280857557438
aF1.243659179370203
atp367
a(g1
(lp368
F12.509410646531446
aF11.763223407379327
aF8.966265752514769
aF3.1755155950982266
aF23.81789377932302
aF8.686849328562232
aF12.587990141383381
aF1.2116682918273138
atp369
a(g1
(lp370
F12.556311460030445
aF11.809935693047148
aF9.008492989741155
aF3.1856050156118942
aF24.09913654318863
aF8.752889195462222
aF12.745228682702958
aF1.207427865511544
atp371
a(g1
(lp372
F12.634648162807558
aF11.888802003251689
aF9.08604989285867
aF3.2376843169162783
aF24.566167192047544
aF9.002300700892187
aF12.958808695421698
aF1.2628277568404842
atp373
a(g1
(lp374
F12.678390100175967
aF11.928175142831238
aF9.11094409876041
aF3.242457998037693
aF24.709779829760265
aF9.034025393811035
aF13.052366315528515
aF1.265367593934697
atp375
a(g1
(lp376
F12.58443176060519
aF11.837680621819867
aF9.032764184152954
aF3.1908817259047604
aF24.26445335921565
aF8.7853219215478
aF12.842696728330122
aF1.2018749292881918
atp377
a(g1
(lp378
F12.5720340434118
aF11.823380147987912
aF9.012713779597352
aF3.170924489022371
aF24.14130473667387
aF8.699554626361929
aF12.799737984282888
aF1.182110124085375
atp379
a(g1
(lp380
F12.550158783507248
aF11.805585810500109
aF9.009932550427495
aF3.1896755010214615
aF24.11817486170109
aF8.768319424714901
aF12.74313434802157
aF1.207467058307529
atp381
a(g1
(lp382
F12.62935359345124
aF11.880570511101604
aF9.07065632361001
aF3.232778160491716
aF24.4440854831345
aF8.973982321040104
aF12.901792839510534
aF1.2702659096238083
atp383
a(g1
(lp384
F12.641228637138454
aF11.894460998420543
aF9.090117594862525
aF3.2458396353049355
aF24.576600014839684
aF9.035918199812134
aF12.956190972826814
aF1.2779869813812765
atp385
a(g1
(lp386
F11.647924498572111
aF10.993719983522166
aF8.515540670132943
aF3.1724915604205552
aF21.7378180053454
aF8.469216056408197
aF11.133209264185693
aF1.2650532091438595
atp387
a(g1
(lp388
F11.486243313885854
aF10.84019220396467
aF8.39196310171482
aF3.1112562494540676
aF21.06194157198087
aF8.17520821950307
aF10.774407149334845
aF1.2033752495094243
atp389
a(g1
(lp390
F11.376788375148573
aF10.738989747518435
aF8.319866281687137
aF3.084954658325928
aF20.733915951776638
aF8.037167788392248
aF10.606259106778525
aF1.1779945958275735
atp391
a(g1
(lp392
F11.606632608364839
aF10.955854175751519
aF8.48881964916344
aF3.1580838232827664
aF21.56661185749384
aF8.400788949989613
aF11.028262612405952
aF1.2468062194301823
atp393
a(g1
(lp394
F11.508227548542383
aF10.861939279231722
aF8.411757580218945
aF3.1210101723881354
aF21.245672716686045
aF8.224653896106966
aF10.901191206638016
aF1.2147145704050477
atp395
a(g1
(lp396
F11.409784990793689
aF10.765500973756883
aF8.32435545097054
aF3.063322340908401
aF20.765741008076734
aF7.9602827975393655
aF10.675381215486413
aF1.1480045481598158
atp397
a(g1
(lp398
F11.158911948049518
aF10.524946710854234
aF8.124849013864791
aF2.9664509904577425
aF19.75386265261865
aF7.501105627666896
aF10.173182429978166
aF1.061737581946884
atp399
a(g1
(lp400
F11.508791637443329
aF10.856445763118197
aF8.388365753429094
aF3.093050731939271
aF20.964913292748104
aF8.09337580768834
aF10.752700963603221
aF1.1844577281150572
atp401
a(g1
(lp402
F11.527431607984612
aF10.878170187093088
aF8.418306177411544
aF3.115885510368321
aF21.22080441218735
aF8.200874979655776
aF10.890270425949032
aF1.2045658918438704
atp403
a(g1
(lp404
F11.70504017676507
aF11.042711468177409
aF8.535789432613745
aF3.145856980780269
aF21.767870410589712
aF8.369311938624667
aF11.188916245756998
aF1.2195271677867572
atp405
a(g1
(lp406
F11.43754835428987
aF10.787940331484709
aF8.328338817970073
aF3.042643235951435
aF20.738345933883053
aF7.872747436885448
aF10.693803721104311
aF1.1160021350363534
atp407
a(g1
(lp408
F11.553333153711232
aF10.897406118543085
aF8.414104591006183
aF3.0835267284007144
aF21.102923118220783
aF8.07366566315983
aF10.858375325964436
aF1.1639214750829898
atp409
a(g1
(lp410
F11.492920951418366
aF10.847247251649277
aF8.400754001983373
aF3.1220600817141926
aF21.184506200753653
aF8.215414675610374
aF10.866837387919512
aF1.2173315539346612
atp411
a(g1
(lp412
F11.575194259792205
aF10.93175465077795
aF8.491224812081368
aF3.196517248655051
aF21.64781305020193
aF8.549565578784827
aF11.0219579268754
aF1.2987727753739526
atp413
a(g1
(lp414
F11.703368748071682
aF11.045821391319105
aF8.552915107466452
aF3.169612464133495
aF21.90917375106085
aF8.4664866065114
aF11.24585496706066
aF1.2459990630146847
atp415
a(g1
(lp416
F11.59889561680866
aF10.946905264691194
aF8.475782756814185
aF3.1419783340583294
aF21.457667523375857
aF8.32852562278514
aF10.976245627787037
aF1.2268466479019826
atp417
a(g1
(lp418
F11.499762282806254
aF10.850918764282456
aF8.392396233593537
aF3.0931466228956777
aF21.128025074941412
aF8.101538832518386
aF10.872959543461505
aF1.1762481476307858
atp419
a(g1
(lp420
F11.607689995869714
aF10.956227922986841
aF8.486872943894795
aF3.1520779835424046
aF21.60188305622957
aF8.376519875768265
aF11.065422676066255
aF1.2354450113626416
atp421
a(g1
(lp422
F11.69729436498282
aF11.040640794061112
aF8.55167638367077
aF3.1793627620136573
aF21.919390970068953
aF8.512873477025673
aF11.234397742647028
aF1.264524752665483
atp423
a(g1
(lp424
F11.638717141251641
aF10.983352952017949
aF8.500154332739811
aF3.147061409597922
aF21.642429356425236
aF8.359412990756077
aF11.111640680162337
aF1.2283212070936185
atp425
a(g1
(lp426
F11.546679597504054
aF10.898393967266786
aF8.44200768317756
aF3.1411453955829307
aF21.33444117539085
aF8.314669966271602
aF10.912480554607143
aF1.2379801739729648
atp427
a(g1
(lp428
F11.573788918326102
aF10.9144327467673
aF8.417748555559982
aF3.0609815600831074
aF21.21726286216652
aF7.993943757592167
aF10.981635779839563
aF1.1255724005605194
atp429
a(g1
(lp430
F11.527244094790683
aF10.879199512552312
aF8.423057290578953
aF3.12489476212315
aF21.27715533974656
aF8.244731123300223
aF10.909841588159926
aF1.217923443535129
atp431
a(g1
(lp432
F11.662990203652964
aF11.011569548430494
aF8.543270761079974
aF3.20697102377506
aF21.84709921073593
aF8.617012090031196
aF11.12875789584007
aF1.3064996446784927
atp433
a(g1
(lp434
F8.57527284023656
aF8.092688858475997
aF6.262016282689166
aF2.309195213376782
aF13.84502940489054
aF4.669253309845806
aF7.453254001569873
aF0.56250003245324
atp435
a(g1
(lp436
F8.150747984289742
aF7.68328183847261
aF5.914476533653761
aF2.129094505312113
aF12.583897907356661
aF4.0851460100007655
aF6.843576438515068
aF0.4458396120971593
atp437
a(g1
(lp438
F7.973567635576762
aF7.5161160518628245
aF5.785207021462895
aF2.0831898894273952
aF12.118537645486573
aF3.921146918418538
aF6.594202920931296
aF0.42409804012578106
atp439
a(g1
(lp440
F8.23167302106502
aF7.768202285478889
aF6.011286306653606
aF2.2197347793894084
aF13.00972314015234
aF4.3420126985427405
aF7.007685346551568
aF0.5000829370600453
atp441
a(g1
(lp442
F8.256898080711924
aF7.784019997549385
aF5.993161924023222
aF2.1565662518785453
aF12.890509563888962
aF4.19092100469952
aF7.014743750209773
aF0.461796906378655
atp443
a(g1
(lp444
F7.935973813517589
aF7.4787502507678285
aF5.749181839414759
aF2.054985359468922
aF12.114068797062776
aF3.858508769040718
aF6.6224847553826685
aF0.39819691704876575
atp445
a(g1
(lp446
F7.886300737675479
aF7.434391093719318
aF5.725636753254476
aF2.0719742352499213
aF11.854928996334774
aF3.868286062502641
aF6.42170232824928
aF0.42062119110941026
atp447
a(g1
(lp448
F7.7553115624231905
aF7.309812799099615
aF5.624086212360151
aF2.013498773077034
aF11.672819533545654
aF3.7171003591584078
aF6.3783159372577956
aF0.3828315976620103
atp449
a(g1
(lp450
F8.33606871677973
aF7.8608088451500615
aF6.062217302797869
aF2.2147543823305393
aF12.951251497203593
aF4.334356097019716
aF6.990395329909848
aF0.5169777503374003
atp451
a(g1
(lp452
F8.265793169865887
aF7.79326321779897
aF6.006186129408237
aF2.188425267565734
aF12.845908189102651
aF4.2497131991481245
aF6.9545897528869665
aF0.489539002741102
atp453
a(g1
(lp454
F8.215961368488136
aF7.740802588987859
aF5.943143199441544
aF2.111216656633032
aF12.50430665272047
aF4.0171227166399435
aF6.821252429821219
aF0.4310638990673617
atp455
a(g1
(lp456
F7.8643466746305934
aF7.408013007597799
aF5.683304682761348
aF2.010833393579216
aF11.690342502930777
aF3.7062345233362244
aF6.396494309571908
aF0.3791160000840811
atp457
a(g1
(lp458
F8.045606315862907
aF7.588041526133316
aF5.854536436098421
aF2.1248174718581168
aF12.43036725088922
aF4.0487319742095
aF6.747203081944986
aF0.44302575558056084
atp459
a(g1
(lp460
F8.215867521544208
aF7.74902021769333
aF5.9812112172293395
aF2.1847391157179317
aF12.93633913047479
aF4.247796164184003
aF7.025349865161638
aF0.48177352478691077
atp461
a(g1
(lp462
F8.275041209755145
aF7.805755232343873
aF6.028836664717975
aF2.210736715661836
aF13.027668655066162
aF4.320877228281725
aF7.0375296464824695
aF0.49204459063654293
atp463
a(g1
(lp464
F8.176399162207048
aF7.712577872232387
aF5.954452866977136
aF2.170170675793022
aF12.676769480766882
aF4.1873328405703125
aF6.8639143616910125
aF0.4799097433125335
atp465
a(g1
(lp466
F7.972977960945288
aF7.513202129680369
aF5.77503332993598
aF2.062756568907282
aF12.24815189650901
aF3.8769925697585386
aF6.714715348520406
aF0.3981703693992447
atp467
a(g1
(lp468
F8.28756075059285
aF7.814546372908289
aF6.024242481740252
aF2.1900759125394993
aF13.055046958144258
aF4.268835013580461
aF7.085414174560069
aF0.4728156645057999
atp469
a(g1
(lp470
F8.196751626905504
aF7.7335145442797595
aF5.979185082266816
aF2.2070866537085587
aF12.958233224016139
aF4.3124311976456235
aF7.004687300051647
aF0.49875341649674493
atp471
a(g1
(lp472
F8.43749346409139
aF7.961947872144924
aF6.15983049396201
aF2.2759958837095358
aF13.434347575531085
aF4.544357427783779
aF7.220577520116607
aF0.5479947007055369
atp473
a(g1
(lp474
F8.239997883712704
aF7.7709026624192346
aF5.996504299244609
aF2.1952149327512807
aF12.912959667735208
aF4.273155223063407
aF6.997420822129231
aF0.49602627621827494
atp475
a(g1
(lp476
F8.131648518009161
aF7.665221852500173
aF5.900256715156804
aF2.1246373696396503
aF12.508568142104933
aF4.062654496417865
aF6.806477899837777
aF0.4467701602769342
atp477
a(g1
(lp478
F7.861180486003238
aF7.406158844766468
aF5.685368890065081
aF2.0142883181665887
aF11.90466189946138
aF3.7448787990730925
aF6.552297446690338
aF0.38752424254063966
atp479
a(g1
(lp480
F8.207176867454717
aF7.740666195264977
aF5.9727659906891395
aF2.1707077933022783
aF12.92958984674867
aF4.2169268372257385
aF7.031059406559748
aF0.4668061834020635
atp481
a.