(lp0
(VAl
p1
(lp2
F8.39763768179262
aF7.920087901944656
aF6.111899897481299
aF2.2398517705423786
aF13.289843176334303
aF4.430745969637968
aF7.174562162679852
aF0.5142671787830738
atp3
a(g1
(lp4
F8.091543646740721
aF7.627673289999967
aF5.8702115947476985
aF2.0995670109507167
aF12.541735820276136
aF4.009311730446074
aF6.871423529038997
aF0.43079737821188474
atp5
a(g1
(lp6
F8.459789656608953
aF7.979615134309546
aF6.160165846294141
aF2.253494138960278
aF13.405788808458807
aF4.484316766173219
aF7.238207694634192
aF0.5320450299350222
atp7
a(g1
(lp8
F8.056747718753474
aF7.595598368619765
aF5.848611576502842
aF2.0996513786982716
aF12.589162938731493
aF4.003102600061659
aF6.887628987034554
aF0.4129154007282535
atp9
a(g1
(lp10
F8.05327115458177
aF7.594070875135485
aF5.857138504153225
aF2.138804646055486
aF12.5672499476731
aF4.100350480148063
aF6.835268857697267
aF0.4540269680413012
atp11
a(g1
(lp12
F8.318359543786697
aF7.84854354355271
aF6.066707932781682
aF2.2243766598502335
aF13.174745723643976
aF4.386138763324172
aF7.124149730801133
aF0.5133374968571295
atp13
a(g1
(lp14
F8.051527288075798
aF7.590288384692368
aF5.846280797742316
aF2.1194102012597935
aF12.445197007828362
aF4.040226842444208
aF6.765804820347595
aF0.43733631284716984
atp15
a(g1
(lp16
F8.144250595796473
aF7.675863146501396
aF5.9021387962724035
aF2.110117643169805
aF12.655045093305084
aF4.042070850095623
aF6.906142599397623
aF0.4173695691768765
atp17
a(g1
(lp18
F8.325461518517368
aF7.850286875297588
aF6.049467490482078
aF2.1831020699728625
aF13.16618051779042
aF4.285322813600382
aF7.168134424759348
aF0.474253064662973
atp19
a(g1
(lp20
F8.095862255373799
aF7.635200367077211
aF5.890503364117174
aF2.1399390549808373
aF12.674514262225491
aF4.122908131121097
aF6.899442426729953
aF0.45393470261476676
atp21
a(g1
(lp22
F7.975134569784451
aF7.514596955134328
aF5.773135228945216
aF2.0575033425371876
aF11.98061656086022
aF3.8491253888402563
aF6.530686527562088
aF0.40965415758513934
atp23
a(g1
(lp24
F7.910089952850499
aF7.450771346485326
aF5.714663302211688
aF2.021882046442909
aF11.825072354925817
aF3.7661925204219395
aF6.46988740622377
aF0.39197856755233235
atp25
a(g1
(lp26
F8.398063175701765
aF7.921955871701517
aF6.1161474735056185
aF2.2276769121354056
aF13.454481696052424
aF4.420703542559149
aF7.297642199471664
aF0.49672475551778816
atp27
a(g1
(lp28
F8.306986197196675
aF7.837797730007726
aF6.062744090017035
aF2.2481873463013495
aF13.267618786745333
aF4.4575542157674075
aF7.156966754399011
aF0.531501646173975
atp29
a(g1
(lp30
F8.319509801642518
aF7.840670196245186
aF6.026696822565564
aF2.144281225372382
aF12.838000936491964
aF4.141291324322126
aF7.002466599647794
aF0.4521946231724491
atp31
a(g1
(lp32
F7.887465001426747
aF7.43136861563957
aF5.708727453391385
aF2.0438083902822397
aF11.827814177882319
aF3.810271501093667
aF6.450731674492695
aF0.41079587238133364
atp33
a(g1
(lp34
F8.018902675947215
aF7.558815632231074
aF5.81788744133969
aF2.0917071845654287
aF12.403809631400819
aF3.9799390640198573
aF6.785495582689156
aF0.4293906047608941
atp35
a(g1
(lp36
F8.45809628107179
aF7.977923577449958
aF6.15660860688357
aF2.237430922442255
aF13.4803842090764
aF4.4390596096871295
aF7.304158412290899
aF0.5035619763452585
atp37
a(g1
(lp38
F8.066396484553103
aF7.60658116489343
aF5.863758749954963
aF2.1126329873784098
aF12.488320139269582
aF4.041318635278513
aF6.797945726481745
aF0.4350109945031922
atp39
a(g1
(lp40
F8.233317080281521
aF7.765299144268887
aF5.992635886828798
aF2.1853396209357214
aF12.826495964768213
aF4.269442618920021
aF6.9351177338611665
aF0.49930839649161357
atp41
a(g1
(lp42
F7.894708122977335
aF7.436311861836033
aF5.705216477615977
aF2.0268725873561793
aF11.982251838101327
aF3.7722178325874913
aF6.57956796733306
aF0.38009123812390266
atp43
a(g1
(lp44
F8.082636159311555
aF7.61534571926099
aF5.847483459397878
aF2.0785516883568573
aF12.356735044181505
aF3.9346832285409357
aF6.755212854826198
aF0.40769924357312437
atp45
a(g1
(lp46
F7.767936367033808
aF7.323745671407991
aF5.643940835229569
aF2.04470751688952
aF11.817372267250937
aF3.809715345535905
aF6.454257615726171
aF0.4123791886996011
atp47
a(g1
(lp48
F8.489135567952378
aF8.00850531698595
aF6.186763806646562
aF2.2700636801732705
aF13.461211858379839
aF4.531508042780672
aF7.24753743580622
aF0.5382942280096341
atp49
a(g1
(lp50
F11.615074642983181
aF10.963151165256694
aF8.489834939472098
aF3.138848680991784
aF21.652679370482165
aF8.32599956850438
aF11.129591376809262
aF1.21066419589661
atp51
a(g1
(lp52
F11.591402437364355
aF10.934448398947628
aF8.447335576624686
aF3.108967072852892
aF21.385036483575348
aF8.182090281231941
aF11.033033224366962
aF1.1931071926287238
atp53
a(g1
(lp54
F11.456827268926506
aF10.815536361180108
aF8.384479173753844
aF3.127644518715334
aF21.032532345823725
aF8.242858069601517
aF10.720369860690681
aF1.2298934506274446
atp55
a(g1
(lp56
F11.488296573467034
aF10.843610424154539
aF8.400021290634413
aF3.1227764955956436
aF21.17651908669649
aF8.22166256941812
aF10.855985192651637
aF1.2164173260369748
atp57
a(g1
(lp58
F11.664625886857323
aF11.015729896116607
aF8.554308255865166
aF3.212152593167451
aF21.968785622146743
aF8.645311619294135
aF11.191573804002717
aF1.301387985124142
atp59
a(g1
(lp60
F11.482614363599568
aF10.839567149164035
aF8.403714064378189
aF3.1460437175918323
aF21.207449868402307
aF8.315400974030757
aF10.843021936651477
aF1.256231506255318
atp61
a(g1
(lp62
F11.635307965286504
aF10.982518551961968
aF8.508148783139747
aF3.1668953703701903
aF21.630749982046503
aF8.444318598140656
aF11.055538381071548
aF1.2577831461355315
atp63
a(g1
(lp64
F11.429582149960185
aF10.789234523637486
aF8.362498445667601
aF3.1210141006685936
aF21.056302661106127
aF8.192995877815951
aF10.79859782008405
aF1.2273466394096872
atp65
a(g1
(lp66
F11.685790536497263
aF11.027723625866578
aF8.53305397404098
aF3.1494226557060117
aF21.864707724327136
aF8.38859376334981
aF11.249438155024503
aF1.2194255896358728
atp67
a(g1
(lp68
F11.79246327773969
aF11.12840156677342
aF8.611378805935932
aF3.187748246920787
aF22.256613944331484
aF8.580734161791257
aF11.457075363948231
aF1.2663896087965485
atp69
a(g1
(lp70
F11.576954529367057
aF10.929805753463928
aF8.474349371875784
aF3.1568507895652504
aF21.51034179374224
aF8.395907127052265
aF10.98386452180785
aF1.2481860670399498
atp71
a(g1
(lp72
F11.480612370735866
aF10.831299025009397
aF8.372508280716449
aF3.0796482154714884
aF21.026892684109196
aF8.03610032259168
aF10.819174598796483
aF1.1537114362771985
atp73
a(g1
(lp74
F11.674853740905451
aF11.017222035028755
aF8.52443569784535
aF3.1532360061708964
aF21.76358858711691
aF8.404754354349775
aF11.179200957539058
aF1.2367756199887088
atp75
a(g1
(lp76
F11.661800861496445
aF11.014976202257058
aF8.56227907348184
aF3.2456562531615054
aF22.075172982066697
aF8.798813779037381
aF11.228569529915717
aF1.3641678206809877
atp77
a(g1
(lp78
F11.641621907220895
aF10.986222415651001
aF8.49960968716096
aF3.1254262021968016
aF21.699087555026846
aF8.288683535024656
aF11.173861610194832
aF1.1909152431661467
atp79
a(g1
(lp80
F11.482688709859396
aF10.825230808830815
aF8.336764198613254
aF3.0096685246775805
aF20.741339137932858
aF7.761419834179413
aF10.74476793684819
aF1.0722736641044297
atp81
a(g1
(lp82
F11.605518837167763
aF10.953007469004518
aF8.479093877747985
aF3.1379902927174577
aF21.56564388791673
aF8.32335151075486
aF11.07149840774127
aF1.2196939302701895
atp83
a(g1
(lp84
F11.65582419909946
aF11.00751247651562
aF8.548936487581491
aF3.2265876313328943
aF21.963993347823696
aF8.714620353004008
aF11.188141787391944
aF1.343196090599514
atp85
a(g1
(lp86
F11.586805928444265
aF10.935728629059941
aF8.470754892192742
aF3.1666598080918438
aF21.477519121170083
aF8.426776190226564
aF10.983792184437892
aF1.276146459034365
atp87
a(g1
(lp88
F11.462413580797332
aF10.816175858750196
aF8.368670678188991
aF3.0993426771087687
aF20.91758657533579
aF8.119063904716763
aF10.705179123459938
aF1.194683731927957
atp89
a(g1
(lp90
F11.56419619997031
aF10.916781519006838
aF8.461891410135674
aF3.152207675395587
aF21.453249929223812
aF8.36840804145661
aF10.962065093999701
aF1.2463895257061937
atp91
a(g1
(lp92
F11.571790222096272
aF10.920786024857758
aF8.451364361328285
aF3.117236879719506
aF21.453334639142106
aF8.230664095263025
aF11.035482028824678
aF1.193054951872479
atp93
a(g1
(lp94
F11.456621161040955
aF10.814812750721304
aF8.379457372254778
aF3.1089202621302428
aF21.085028899450023
aF8.168348269220237
aF10.809256517018293
aF1.2030589508840108
atp95
a(g1
(lp96
F11.782152539391591
aF11.118036310409206
aF8.602160312828826
aF3.1856365660403068
aF22.077277525467576
aF8.562056159781479
aF11.316186181910933
aF1.2665729575556883
atp97
a(g1
(lp98
F12.606448576964262
aF11.86252849697545
aF9.06865416153986
aF3.2403327253086456
aF24.455281792386888
aF9.002521827172094
aF12.878702101866647
aF1.2717445312377977
atp99
a(g1
(lp100
F12.407885113583635
aF11.672699611336721
aF8.910264558519875
aF3.146338658366942
aF23.566602135311598
aF8.543810465353365
aF12.445102882779988
aF1.1632955804242764
atp101
a(g1
(lp102
F12.394340769609311
aF11.65868202336597
aF8.896007357739888
aF3.1424099122373805
aF23.47170800276492
aF8.522106324461573
aF12.386791304835567
aF1.1643556695358082
atp103
a(g1
(lp104
F12.603088179177458
aF11.858303270861775
aF9.058400604790165
aF3.2152878969798477
aF24.423455015145425
aF8.899468398655623
aF12.908573939852289
aF1.236468203156324
atp105
a(g1
(lp106
F12.694450651135758
aF11.94202823806022
aF9.115694542123682
aF3.22882224853331
aF24.74971505734187
aF8.984201869683702
aF13.10915230213858
aF1.2433985434025296
atp107
a(g1
(lp108
F12.542765592897716
aF11.799292990781952
aF9.006999182290667
aF3.193932428191471
aF24.100745814577873
aF8.785876240732795
aF12.73226987746418
aF1.2184108473408681
atp109
a(g1
(lp110
F12.472458147120872
aF11.732956042579834
aF8.957644977425888
aF3.185115919623742
aF23.799874006459603
aF8.72138267922475
aF12.545269324900852
aF1.2207291463122474
atp111
a(g1
(lp112
F12.61282338261274
aF11.869752659802275
aF9.080724277023787
aF3.2717132387111505
aF24.488092604142786
aF9.132388198443085
aF12.855274712221847
aF1.3254551476747658
atp113
a(g1
(lp114
F12.670264361368812
aF11.923662896450669
aF9.11896795097527
aF3.2671116705806034
aF24.75133138722239
aF9.137345417554089
aF13.038826068693377
aF1.3039121705684686
atp115
a(g1
(lp116
F12.62140812334522
aF11.879170213915424
aF9.092359462686458
aF3.282663836381055
aF24.560818782465585
aF9.186875745882404
aF12.884624839389383
aF1.3397378772917807
atp117
a(g1
(lp118
F12.435667403298094
aF11.695913056931715
aF8.91845185175081
aF3.141225278458973
aF23.59473770074299
aF8.532931560925011
aF12.481266568602097
aF1.1607735144549651
atp119
a(g1
(lp120
F12.508530943095844
aF11.768154121112266
aF8.98911304214041
aF3.2050250413405856
aF23.976602056397237
aF8.81783161643742
aF12.629280499168344
aF1.2437954913150198
atp121
a(g1
(lp122
F12.626460284127317
aF11.883000627468412
aF9.089526801299499
aF3.2547648545379735
aF24.593918049225493
aF9.071076675857858
aF12.947587542658777
aF1.2844101055443662
atp123
a(g1
(lp124
F12.621560879204315
aF11.882067179631639
aF9.10131187567999
aF3.2744551443765304
aF24.671521254733598
aF9.161454443858101
aF12.952720977150749
aF1.3095491974584654
atp125
a(g1
(lp126
F12.377111115666303
aF11.637993105342952
aF8.86599238248646
aF3.1210197877023105
aF23.263225315888636
aF8.42816212024728
aF12.307398927503513
aF1.1579342817634084
atp127
a(g1
(lp128
F12.390890610295923
aF11.654356270890567
aF8.89223696529643
aF3.155040965402003
aF23.407762084031013
aF8.566721370374657
aF12.33137763887714
aF1.1893145268877165
atp129
a(g1
(lp130
F12.54729243713509
aF11.805344200173332
aF9.018389734104112
aF3.2077015228477626
aF24.173657373781438
aF8.841330587213834
aF12.754954627845636
aF1.2306682331648777
atp131
a(g1
(lp132
F12.53111296981598
aF11.78977183083476
aF9.00573199170923
aF3.2007178751622836
aF24.101882893726117
aF8.810435501056464
aF12.710611038212832
aF1.2238761657976416
atp133
a(g1
(lp134
F12.40011635253516
aF11.663453714567606
aF8.898990589938673
aF3.1528028687156633
aF23.461172866161608
aF8.565336062237206
aF12.370377343834567
aF1.1853786246466615
atp135
a(g1
(lp136
F12.412175947029867
aF11.677674770947748
aF8.918669176897678
aF3.1669470174175096
aF23.591566928111718
aF8.62445535586018
aF12.430722269591513
aF1.193830489399842
atp137
a(g1
(lp138
F12.538579320742917
aF11.7984863268866
aF9.020268706968338
aF3.2317861643054058
aF24.147206326862026
aF8.939033074361776
aF12.68953432497581
aF1.2720348439454472
atp139
a(g1
(lp140
F12.412107284546325
aF11.676603543896913
aF8.916914748478632
aF3.1771501444751955
aF23.555774290731588
aF8.66304703145312
aF12.392689444129049
aF1.2161620308921417
atp141
a(g1
(lp142
F12.367982069088264
aF11.637040237433066
aF8.893878933128512
aF3.182069936785616
aF23.4141226667362
aF8.676744282826066
aF12.280945583745625
aF1.2317915428341184
atp143
a(g1
(lp144
F12.507189580485068
aF11.766338692823213
aF8.985193435239912
aF3.1936068931619768
aF23.96613651125078
aF8.772119339547817
aF12.63571476196423
aF1.2227974036045453
atp145
a(g1
(lp146
F12.525970830471756
aF11.786552255976739
aF9.011028164594494
aF3.2327986589663764
aF24.085306595659812
aF8.94244863385567
aF12.6541471945296
aF1.2849746416889414
atp147
a(g1
(lp148
F12.469339877212583
aF11.724346715835992
aF8.928763464456592
aF3.129447682576494
aF23.66388929378026
aF8.48866834363206
aF12.56137083291074
aF1.1424494887197114
atp149
a(g1
(lp150
F12.181304569247626
aF11.447891685305134
aF8.698103849178757
aF3.0139481063701843
aF22.332731146435968
aF7.927468964877486
aF11.863165144842359
aF1.0369928891729068
atp151
a(g1
(lp152
F12.269821987749076
aF11.535156880143035
aF8.781214521698756
aF3.0755166206132523
aF22.798641672084386
aF8.201081215058533
aF12.061983805993664
aF1.1019473053254567
atp153
a(g1
(lp154
F12.641056670215505
aF11.89679857303569
aF9.10228305949821
aF3.2700316828115414
aF24.640165467674656
aF9.137840319758904
aF12.945235182885119
aF1.3044369203088595
atp155
a(g1
(lp156
F12.497173813694694
aF11.756868219697045
aF8.978375088271259
aF3.1939189952709035
aF23.92390103624176
aF8.764140614133716
aF12.607892088032752
aF1.2246593365010974
atp157
a(g1
(lp158
F12.289635256303876
aF11.553269984947603
aF8.791707192034858
aF3.066217153497054
aF22.86873705564282
aF8.169407919825433
aF12.127544768480472
aF1.0800892044821528
atp159
a(g1
(lp160
F12.44230541573604
aF11.70158966348621
aF8.9206700485378
aF3.144749808484272
aF23.606224909160353
aF8.545629636674366
aF12.494836456230834
aF1.17345272343004
atp161
a(g1
(lp162
F12.661809454431976
aF11.912756301719147
aF9.09951810672207
aF3.2357403590067717
aF24.644551555321232
aF9.00219158526081
aF13.017337003847294
aF1.2557340284509935
atp163
a(g1
(lp164
F12.58218061292589
aF11.83406083112392
aF9.028280193608138
aF3.1993315309019517
aF24.209296776033142
aF8.814053112756946
aF12.797943596647409
aF1.2203363196725387
atp165
a(g1
(lp166
F12.420269348514989
aF11.680189769855293
aF8.90315047529591
aF3.136762966990945
aF23.491422152575037
aF8.503129880025767
aF12.425652146024644
aF1.1607374011922968
atp167
a(g1
(lp168
F12.47555025542587
aF11.734992297094871
aF8.956936081459451
aF3.182440619964655
aF23.793572415573582
aF8.706520905811134
aF12.54444417546129
aF1.214361899599421
atp169
a(g1
(lp170
F12.539205365945048
aF11.795741753775404
aF9.00396222059083
aF3.185732903282908
aF24.094399279149002
aF8.75064940444121
aF12.730570926480622
aF1.1989500308969085
atp171
a(g1
(lp172
F12.61480662686307
aF11.866096055477731
aF9.053720576721526
aF3.1913616661257946
aF24.408290283198255
aF8.799451071590807
aF12.93570855039358
aF1.1917766143046433
atp173
a(g1
(lp174
F12.45792536474501
aF11.71618935951087
aF8.93477748745656
aF3.1622171764122577
aF23.65721202225997
aF8.618697516499209
aF12.494204119957507
aF1.1941315906030945
atp175
a(g1
(lp176
F12.383055489965002
aF11.64614135713472
aF8.882475495270478
aF3.1383985268140635
aF23.368206996634303
aF8.4925014502593
aF12.324423112415872
aF1.1580863786809412
atp177
a(g1
(lp178
F12.46535009887914
aF11.718027588937526
aF8.91339326377594
aF3.0952935930026433
aF23.591742736327724
aF8.346445773911274
aF12.569166868017783
aF1.0907601355303491
atp179
a(g1
(lp180
F12.554019229608745
aF11.809141921296611
aF9.013786593507891
aF3.2033881677595724
aF24.12477732130522
aF8.821016469175735
aF12.741922114702778
aF1.2358965548489367
atp181
a(g1
(lp182
F12.422305065045412
aF11.681476691097568
aF8.902003321715569
aF3.126933685854545
aF23.500078116507037
aF8.461535183614224
aF12.440632840740326
aF1.1369936551701043
atp183
a(g1
(lp184
F12.288018060242269
aF11.55131679774115
aF8.78903185755724
aF3.0706435044775082
aF22.827883275258973
aF8.191585521242837
aF12.09993541601899
aF1.100523516928857
atp185
a(g1
(lp186
F12.45820960884313
aF11.717119309827495
aF8.935906436471088
aF3.158273518254812
aF23.682419208297564
aF8.603380926715452
aF12.5194318600583
aF1.186900326502643
atp187
a(g1
(lp188
F12.483448760648063
aF11.739531006659043
aF8.950066441648392
aF3.1729852035374795
aF23.736719209878782
aF8.666452372981723
aF12.55161058180447
aF1.2175675144944227
atp189
a(g1
(lp190
F12.271467182054142
aF11.535129550995304
aF8.774229673711753
aF3.0601991676887903
aF22.755054107776076
aF8.142227548944263
aF12.069403579309219
aF1.086212976853025
atp191
a(g1
(lp192
F12.256579490017927
aF11.52151118274131
aF8.766543872856168
aF3.0642277441226473
aF22.704846954608737
aF8.15308422416479
aF12.023645144128004
aF1.0911130820230448
atp193
a(g1
(lp194
F12.45998363091228
aF11.726854496468954
aF8.974004444325
aF3.223402662991539
aF23.890410370861293
aF8.883086596001013
aF12.51871122559206
aF1.2680057978497674
atp195
a(g1
(lp196
F12.292947912439425
aF11.561953516101767
aF8.821939578329166
aF3.133878599408667
aF23.002991146483076
aF8.439839547071083
aF12.091137030380178
aF1.1722225547730056
atp197
a(g1
(lp198
F12.129992436233172
aF11.40437387097015
aF8.683652012366986
aF3.0434609649161275
aF22.23479156686467
aF8.029105008591468
aF11.734188890875274
aF1.0791994633018671
atp199
a(g1
(lp200
F12.35293179741271
aF11.619932449088818
aF8.871334700265074
aF3.164703425845393
aF23.28035875421786
aF8.594917877028353
aF12.232555086061419
aF1.2143303795593998
atp201
a(g1
(lp202
F12.533093589712239
aF11.795906484594385
aF9.025345128937932
aF3.2258561207723693
aF24.222625245933592
aF8.92095449739571
aF12.729764239870288
aF1.2490561687892876
atp203
a(g1
(lp204
F12.370968060171979
aF11.640216143243093
aF8.899943946473195
aF3.197554036266886
aF23.426705541087816
aF8.735379919757467
aF12.261574172514337
aF1.2540112272021557
atp205
a(g1
(lp206
F12.281139295165183
aF11.55129590859192
aF8.809694029287186
aF3.092542816011116
aF22.989349413202593
aF8.281021995974012
aF12.140847811775048
aF1.1030159244896314
atp207
a(g1
(lp208
F12.448794637765209
aF11.71631051412046
aF8.96603209463599
aF3.2296347472680353
aF23.826211601475098
aF8.903765145510425
aF12.479025362260344
aF1.289513053410058
atp209
a(g1
(lp210
F12.528065278994436
aF11.787937498328176
aF9.008073477293646
aF3.2140311935495127
aF24.089017707281485
aF8.86623800014754
aF12.684426771583059
aF1.2533398850822424
atp211
a(g1
(lp212
F12.384649444853757
aF11.648595804910416
aF8.887470250964212
aF3.154369841231325
aF23.376830058774605
aF8.564872249546093
aF12.31859881459293
aF1.195515253929696
atp213
a(g1
(lp214
F12.317625855638012
aF11.582354344878015
aF8.824089100682695
aF3.098105678303445
aF23.039345242793026
aF8.309227697032295
aF12.186866927359953
aF1.1227078843546705
atp215
a(g1
(lp216
F12.451367234517532
aF11.718131645835234
aF8.967688486095918
aF3.2380281193343055
aF23.815524003612616
aF8.934064930511125
aF12.45454435041715
aF1.2987453392065476
atp217
a(g1
(lp218
F12.52646867118887
aF11.787692697240644
aF9.013573233955963
aF3.2341641058488384
aF24.106869050157336
aF8.946351785126714
aF12.665941005049142
aF1.2842776275136674
atp219
a(g1
(lp220
F12.441997676340032
aF11.707312072360338
aF8.951506621920807
aF3.2183693380872596
aF23.727911107481976
aF8.844561882186444
aF12.437385614369955
aF1.2762449652665577
atp221
a(g1
(lp222
F12.32634287599501
aF11.59589060719746
aF8.854060860404825
aF3.1434629822256417
aF23.19589974486186
aF8.505412188090663
aF12.202177649283229
aF1.1823873411805208
atp223
a(g1
(lp224
F12.409278946534894
aF11.674751725490319
aF8.917745584478997
aF3.173327880339853
aF23.566773340043014
aF8.653707318379354
aF12.395079986587112
aF1.2076520175093626
atp225
a(g1
(lp226
F12.529105483642235
aF11.790750828702711
aF9.020758841736606
aF3.250805055722415
aF24.140145543887314
aF9.007304561770509
aF12.648691833231211
aF1.2995494748299319
atp227
a(g1
(lp228
F12.432847661712191
aF11.702070766685523
aF8.955462336177424
aF3.205363334049573
aF23.81284394395137
aF8.798350452389288
aF12.489449988153545
aF1.2354537871041253
atp229
a(g1
(lp230
F12.229905099742563
aF11.502232171657173
aF8.774506987542576
aF3.116305399239133
aF22.713005863435544
aF8.352213078513206
aF11.933062155290628
aF1.1668582791426343
atp231
a(g1
(lp232
F12.308587033843008
aF11.574466392467738
aF8.82322755106975
aF3.123695148982989
aF22.997943336310602
aF8.409483796613305
aF12.122169467175953
aF1.1723900651608121
atp233
a(g1
(lp234
F12.464694335650089
aF11.7286092592956
aF8.96510505169764
aF3.208171795800863
aF23.827342700078972
aF8.818014403015308
aF12.518931418035189
aF1.2561584428202335
atp235
a(g1
(lp236
F12.286496846007587
aF11.553741180898834
aF8.803944317903989
aF3.0893282567922817
aF22.943893436650104
aF8.267403995807069
aF12.123906132260332
aF1.1090029709626579
atp237
a(g1
(lp238
F12.058167181132614
aF11.33382926302769
aF8.618435766643625
aF2.994539580488822
aF21.87874680459524
aF7.812155565813352
aF11.572684888536063
aF1.0218679764352683
atp239
a(g1
(lp240
F12.261462930613016
aF11.531744246099116
aF8.793456943953988
aF3.094504384889604
aF22.884835271984546
aF8.280203003595057
aF12.067130407072652
aF1.113038377233675
atp241
a(g1
(lp242
F12.353521130319171
aF11.617241574306219
aF8.855469509587243
aF3.120254064655926
aF23.215939175197093
aF8.412382624445632
aF12.261541960831831
aF1.1472874595909965
atp243
a(g1
(lp244
F12.385052945668676
aF11.649778775511981
aF8.890643992938518
aF3.1488032971696094
aF23.413850075671345
aF8.54271027470812
aF12.336487900874088
aF1.176386154848008
atp245
a(g1
(lp246
F12.16620854929972
aF11.440208682124299
aF8.718552365104728
aF3.077344066440981
aF22.407577891898683
aF8.173532764461322
aF11.798388568255954
aF1.1261756001571155
atp247
a(g1
(lp248
F12.152463383317592
aF11.420534237789125
aF8.678356987990286
aF3.0081698806756294
aF22.217245216082894
aF7.892694613793466
aF11.782557164497828
aF1.0254643194834885
atp249
a(g1
(lp250
F12.351235887733006
aF11.612941280604966
aF8.84171280331516
aF3.0883770146442497
aF23.17220241730289
aF8.277914575357615
aF12.292079776846867
aF1.098239780249013
atp251
a(g1
(lp252
F12.314880848316818
aF11.587008058859254
aF8.85478629771078
aF3.1545618259343176
aF23.212099726669916
aF8.54116949654935
aF12.180996238301423
aF1.1866579868210456
atp253
a(g1
(lp254
F12.239722820288916
aF11.513052293701747
aF8.786949354143863
aF3.121358038855859
aF22.793899762550534
aF8.377488671046473
aF11.972907754250281
aF1.1675213695737336
atp255
a(g1
(lp256
F12.245013272877971
aF11.51610461200752
aF8.782205676658378
aF3.1079936319874935
aF22.773239978585877
aF8.327048889207937
aF11.992506179902698
aF1.1539300124591243
atp257
a(g1
(lp258
F12.392306180957624
aF11.656025896650586
aF8.890571817261394
aF3.1322708816701157
aF23.44681904911895
aF8.476935195007181
aF12.397116206188278
aF1.149776299299839
atp259
a(g1
(lp260
F12.277243996993262
aF11.549860051309368
aF8.8217093272728
aF3.146397263824364
aF22.996767558531065
aF8.495780951655687
aF12.063718557561819
aF1.1953273148424735
atp261
a(g1
(lp262
F12.216309874536623
aF11.483268819400198
aF8.736865229819763
aF3.0658810018808893
aF22.50571681376714
aF8.143719237520232
aF11.904988166428572
aF1.113559882674245
atp263
a(g1
(lp264
F12.301609660472298
aF11.567877451876615
aF8.815108513118238
aF3.102802174572559
aF22.983415799297127
aF8.321527261175808
aF12.145650704417074
aF1.1366300856920855
atp265
a(g1
(lp266
F12.434008599963901
aF11.699535174881303
aF8.944530778392144
aF3.206975483870576
aF23.699428517173157
aF8.798084226693401
aF12.425743253837005
aF1.2529051772938256
atp267
a(g1
(lp268
F12.379969724563034
aF11.641586427616323
aF8.86923074816367
aF3.1108463857420037
aF23.32313709370492
aF8.383216456670947
aF12.363548315621665
aF1.1301933866504252
atp269
a(g1
(lp270
F12.230711974509086
aF11.496784913368748
aF8.746929823439823
aF3.0665642506366986
aF22.5727827930463
aF8.149292226860927
aF11.94656053675166
aF1.108487049987854
atp271
a(g1
(lp272
F12.341595245733817
aF11.60760146885599
aF8.852134124164504
aF3.118150893712292
aF23.21043308394067
aF8.406258184574222
aF12.258235065333883
aF1.14104195814052
atp273
a(g1
(lp274
F12.493587478129182
aF11.753310206613035
aF8.975780121972827
aF3.198371714090634
aF23.89332753781983
aF8.779450679530797
aF12.582805047469126
aF1.2331304770811133
atp275
a(g1
(lp276
F12.493516764462587
aF11.756573955084766
aF8.989229822674421
aF3.2155207317397334
aF23.99716665937714
aF8.854559493148994
aF12.609421538793924
aF1.2474958672057037
atp277
a(g1
(lp278
F12.356797702305421
aF11.62389026523619
aF8.874618111158973
aF3.160377605759509
aF23.301850441979962
aF8.57551628054009
aF12.252973871206382
aF1.2026555051479082
atp279
a(g1
(lp280
F12.32282005467524
aF11.592194311960311
aF8.849391670584708
aF3.135351824724431
aF23.17690162666374
aF8.469528462676742
aF12.197463811693138
aF1.1678140141465525
atp281
a(g1
(lp282
F12.42984257929538
aF11.694962833465835
aF8.93632498027692
aF3.1824191452061297
aF23.68588596069474
aF8.696726677980898
aF12.45214406333414
aF1.209128544136637
atp283
a(g1
(lp284
F12.515144261369347
aF11.778902658245727
aF9.011302442777122
aF3.2197247523428216
aF24.13557321458642
aF8.888793101169496
aF12.685793911023389
aF1.2484839506813292
atp285
a(g1
(lp286
F12.260933667468883
aF11.532127336977721
aF8.79990788394273
aF3.120635524136043
aF22.885380196023252
aF8.37926465795995
aF12.023688343628285
aF1.1519260779365441
atp287
a(g1
(lp288
F12.200829497689408
aF11.47125479400595
aF8.733853429733983
aF3.048591413493868
aF22.542274923787215
aF8.075492097016667
aF11.923974029238112
aF1.0679190033429031
atp289
a(g1
(lp290
F12.354507409601965
aF11.6172355545231
aF8.852574446660455
aF3.1158490465863515
aF23.20041465509527
aF8.393502577263638
aF12.263837905113093
aF1.1405103690694092
atp291
a(g1
(lp292
F12.355035556832805
aF11.616545907593753
aF8.846106258665799
aF3.099434596984032
aF23.16605770608496
aF8.330653056146161
aF12.267252820360545
aF1.120413984566858
atp293
a(g1
(lp294
F12.300631055546166
aF11.568431843170353
aF8.820694210115644
aF3.1122237202324885
aF23.01135229103036
aF8.366046231026163
aF12.139077030665215
aF1.1461234472855808
atp295
a(g1
(lp296
F12.323466009113217
aF11.588790856675613
aF8.834878172397211
aF3.122545668492877
aF23.085784045758302
aF8.404488677706864
aF12.173668269666011
aF1.1541934997462242
atp297
a(g1
(lp298
F12.263305360200306
aF11.526795041369724
aF8.764551356732447
aF3.041488391348885
aF22.719096097031983
aF8.062882555268606
aF12.06961569093618
aF1.0511494017298397
atp299
a(g1
(lp300
F12.210858560078462
aF11.481096000965247
aF8.741930030574453
aF3.048790167830834
aF22.59056351455108
aF8.082872831411642
aF11.955919944144576
aF1.0663114451141062
atp301
a(g1
(lp302
F12.268739439069389
aF11.53810114322783
aF8.799338021040795
aF3.1143764484186214
aF22.87586973373922
aF8.357218230637748
aF12.034313166194803
aF1.1473607435591258
atp303
a(g1
(lp304
F12.3268863728317
aF11.590782552230285
aF8.829864272937353
aF3.1042363737104153
aF23.071407064523058
aF8.334761976760074
aF12.202931802977862
aF1.1327747782738564
atp305
a(g1
(lp306
F12.316405095012081
aF11.583552353457454
aF8.835294428657603
aF3.126429254761558
aF23.09010619707466
aF8.420684548523724
aF12.169423834189603
aF1.1570423856742325
atp307
a(g1
(lp308
F12.182485651477448
aF11.450927396522644
aF8.7073967102729
aF3.0226380344324815
aF22.39288072060402
aF7.961737709642138
aF11.885674376596226
aF1.0461501500240151
atp309
a(g1
(lp310
F12.260055725380026
aF11.523054678274905
aF8.761689567204845
aF3.054440734173069
aF22.67751621590499
aF8.112960831049692
aF12.030676543347523
aF1.0807967096841984
atp311
a(g1
(lp312
F12.393340607289494
aF11.657410077266505
aF8.894003283824658
aF3.1387168905637233
aF23.45626340328807
aF8.504996216683097
aF12.387186360300207
aF1.1596447468806945
atp313
a(g1
(lp314
F12.473653057437932
aF11.728515849626309
aF8.932326523416117
aF3.132959522062622
aF23.671706721102538
aF8.506426300389807
aF12.565046436440086
aF1.1536703945367217
atp315
a(g1
(lp316
F12.336545499100671
aF11.595784605132051
aF8.816085923607988
aF3.0485246415121057
aF23.045009697226067
aF8.116720613628882
aF12.270351913317421
aF1.041834595974442
atp317
a(g1
(lp318
F12.322380872363818
aF11.58786109557159
aF8.834183002499364
aF3.1244271915293518
aF23.068943697302213
aF8.41838633483538
aF12.164879902804353
aF1.164550414199837
atp319
a(g1
(lp320
F12.468122566384748
aF11.7254883410002
aF8.93938958667427
aF3.151850833033393
aF23.699819423163806
aF8.5801182703131
aF12.532694861088412
aF1.1709594534583627
atp321
a(g1
(lp322
F12.61119311467279
aF11.863784345268513
aF9.057484302874677
aF3.21243177050962
aF24.40765118908362
aF8.884409603084682
aF12.899285963657436
aF1.2276850796677345
atp323
a(g1
(lp324
F12.512311120727482
aF11.768113300683519
aF8.976234726281138
aF3.1810995872551673
aF23.901701914289088
aF8.71641284165948
aF12.628352984622365
aF1.2127398573118842
atp325
a(g1
(lp326
F12.384842729964337
aF11.645584560691542
aF8.87271817771802
aF3.1187221272068184
aF23.31794273466347
aF8.414049764245272
aF12.338711219605303
aF1.1404163484771896
atp327
a(g1
(lp328
F12.49289311322791
aF11.749661074373966
aF8.959634716970507
aF3.1585985522034377
aF23.834905221690157
aF8.619085142326826
aF12.614968326420295
aF1.1770529602647777
atp329
a(g1
(lp330
F12.594610276682827
aF11.849195314523378
aF9.050734699834877
aF3.2210921487505084
aF24.357258037055846
aF8.9164147335056
aF12.847892426827977
aF1.2468295230194626
atp331
a(g1
(lp332
F12.500759379000826
aF11.758072139285847
aF8.970830351387864
aF3.1765784844084024
aF23.888227440321618
aF8.696221399336487
aF12.619091899467836
aF1.2017590185053106
atp333
a(g1
(lp334
F12.333843046553708
aF11.594153317519277
aF8.81902314929127
aF3.070572084048396
aF23.02859735953424
aF8.206124417108073
aF12.23515183192207
aF1.0866252877437084
atp335
a(g1
(lp336
F12.39612516233886
aF11.659435550459092
aF8.896172312727103
aF3.157369151018681
aF23.44104920199305
aF8.579779107425564
aF12.35333576293074
aF1.194456253910271
atp337
a(g1
(lp338
F12.545888268997158
aF11.805970949532563
aF9.027020133943344
aF3.230144203156509
aF24.20286658117724
aF8.941692407875808
aF12.729372224535707
aF1.2730498637802625
atp339
a(g1
(lp340
F12.624438411991637
aF11.880275018865678
aF9.085115277246919
aF3.255914232260977
aF24.54592133370483
aF9.075256873846278
aF12.91888144255984
aF1.2932987987939148
atp341
a(g1
(lp342
F12.523388366788513
aF11.785306014829349
aF9.012161871408866
aF3.2255686437805995
aF24.123624058016972
aF8.914731798695753
aF12.684514559611975
aF1.269151218636862
atp343
a(g1
(lp344
F12.462001110990897
aF11.724789591286582
aF8.957730066177563
aF3.198018379506018
aF23.785409932841894
aF8.77542836676056
aF12.508966500393601
aF1.2418630692588841
atp345
a(g1
(lp346
F12.421478325690266
aF11.682088512870818
aF8.908436491396326
aF3.153021480320778
aF23.506402294490236
aF8.57102786647258
aF12.414276774192507
aF1.1884741853881788
atp347
a(g1
(lp348
F12.405709124853628
aF11.670561374928527
aF8.911803720583515
aF3.1723013548958954
aF23.527912162223263
aF8.64922287685844
aF12.379546750434033
aF1.211207109238404
atp349
a(g1
(lp350
F12.419074388377275
aF11.682321297070803
aF8.915086389938633
aF3.155406417856082
aF23.562233465457602
aF8.587471016852344
aF12.439744555467206
aF1.188120302543306
atp351
a(g1
(lp352
F12.421403230364577
aF11.692626993797974
aF8.952458917248457
aF3.2095584648058826
aF23.78598620865394
aF8.819530899841535
aF12.458000722019179
aF1.2474529336292397
atp353
a(g1
(lp354
F12.443006402502105
aF11.705464309696541
aF8.939122249628918
aF3.1929191305483466
aF23.66585465209704
aF8.741436052112114
aF12.446702310082916
aF1.2410829215520902
atp355
a(g1
(lp356
F12.303840695705897
aF11.574881461677965
aF8.836270722876058
aF3.1277061982817997
aF23.111907083061034
aF8.436477791441485
aF12.182819037938115
aF1.1641735369036958
atp357
a(g1
(lp358
F12.339547363230748
aF11.607671358092208
aF8.85918775697905
aF3.13448729270835
aF23.250545999843606
aF8.46719695173526
aF12.260683564769625
aF1.1633209521314847
atp359
a(g1
(lp360
F12.469955105010735
aF11.73701712512887
aF8.984187929490083
aF3.235247108304916
aF23.939677702681557
aF8.9325386724901
aF12.535550281468328
aF1.2872584905416413
atp361
a(g1
(lp362
F12.533051955904233
aF11.792567353627833
aF9.013151364737551
aF3.2220783391530197
aF24.114814620183935
aF8.899901076395643
aF12.683159294999687
aF1.2598390374874844
atp363
a(g1
(lp364
F12.29885049052662
aF11.57013378970922
aF8.837667907119235
aF3.1618879330421934
aF23.065501137528273
aF8.560219452997805
aF12.092166756136741
aF1.217091749048389
atp365
a(g1
(lp366
F12.313982857742324
aF11.58281937344767
aF8.840796899253677
aF3.138629200879956
aF23.124266708142905
aF8.472734764506239
aF12.162135968163318
aF1.17323524270749
atp367
a(g1
(lp368
F12.53197760527801
aF11.796007928656701
aF9.028627512889912
aF3.233831544129076
aF24.24190617679911
aF8.954972281922993
aF12.73147279394841
aF1.2629432818105093
atp369
a(g1
(lp370
F12.612911084842159
aF11.871515020315261
aF9.085826082640857
aF3.2681175068582977
aF24.549225919703453
aF9.124448328433902
aF12.893612912875666
aF1.3119538422712713
atp371
a(g1
(lp372
F12.518332126367538
aF11.780548388965663
aF9.007938215559504
aF3.216014723991739
aF24.11741961110594
aF8.875124497899185
aF12.689429755799305
aF1.2472932333978561
atp373
a(g1
(lp374
F12.429955459519222
aF11.695207008654746
aF8.93686365440399
aF3.188919209889934
aF23.67522674050895
aF8.724704169568446
aF12.448210081489156
aF1.2283026779508328
atp375
a(g1
(lp376
F12.521882152877213
aF11.782239583237216
aF9.005734963600112
aF3.214841801276241
aF24.086432273805862
aF8.862672733334804
aF12.67139181389683
aF1.245562745573689
atp377
a(g1
(lp378
F12.668624719024717
aF11.925973054446386
aF9.13771794693097
aF3.3172600807880936
aF24.825125234268175
aF9.349639332861987
aF12.988652206682266
aF1.3781946281080892
atp379
a(g1
(lp380
F12.72852005714794
aF11.982498145440418
aF9.17792272661586
aF3.309978519753197
aF25.103411483245175
aF9.349344195555076
aF13.185195309656445
aF1.354031719224552
atp381
a(g1
(lp382
F12.543193391465017
aF11.804495274886744
aF9.030913751085661
aF3.243780772713184
aF24.221598871441078
aF8.99528639461994
aF12.709245027939463
aF1.2853084368174437
atp383
a(g1
(lp384
F12.517067905063861
aF11.775436680455982
aF8.990834567234566
aF3.1914420342251586
aF24.00950520144318
aF8.76373801347695
aF12.671726476950168
aF1.2166414400451686
atp385
a(g1
(lp386
F11.47964962705582
aF10.836934081067023
aF8.39974727734075
aF3.129606012393506
aF21.19611221036638
aF8.254078296445629
aF10.862937075171311
aF1.2328785377478462
atp387
a(g1
(lp388
F11.537521612212364
aF10.889670534440453
aF8.435379572797288
aF3.143605908281918
aF21.358801856446973
aF8.325150749060482
aF10.94354279254651
aF1.244345261506958
atp389
a(g1
(lp390
F11.511241552292333
aF10.861067708506793
aF8.398714967844967
aF3.103738208155855
aF21.122281534377137
aF8.145881792163198
aF10.853880702332942
aF1.198714868690229
atp391
a(g1
(lp392
F11.590853780932019
aF10.935891617563295
aF8.4549916722473
aF3.108047886459553
aF21.367936741074526
aF8.190919081272426
aF10.967870734999481
aF1.1726432420523705
atp393
a(g1
(lp394
F11.523497621850597
aF10.874750033847095
aF8.41715230824842
aF3.128281960042272
aF21.13557924604492
aF8.249913919286763
aF10.811371503266722
aF1.2319548145522174
atp395
a(g1
(lp396
F11.502137295842626
aF10.855159708926257
aF8.40381664926327
aF3.1155529136058417
aF21.07596049109434
aF8.195012970639505
aF10.775692427592457
aF1.2051998887228421
atp397
a(g1
(lp398
F11.19724003259053
aF10.567981999682711
aF8.185005033045408
aF3.038921930094032
aF20.217388822124963
aF7.808159479559267
aF10.378477771928004
aF1.143464870877231
atp399
a(g1
(lp400
F11.625055835546735
aF10.969244592645722
aF8.481871862555487
aF3.1133456768390846
aF21.56584046997126
aF8.222226437975522
aF11.122541177552336
aF1.1817856671174403
atp401
a(g1
(lp402
F11.55439618181079
aF10.898978736498488
aF8.416167594410767
aF3.077571709911654
aF21.18957549825397
aF8.056295056689969
aF10.925659099915872
aF1.14775731441532
atp403
a(g1
(lp404
F11.452697395839317
aF10.804545295308921
aF8.349190816028997
aF3.0632751121026143
aF20.78420060868605
aF7.969825650040083
aF10.664999232049272
aF1.1471387717083392
atp405
a(g1
(lp406
F11.63104099206894
aF10.980766831719128
aF8.514834619344704
aF3.180712384308085
aF21.684989719152156
aF8.500161454200985
aF11.064233975555338
aF1.2740125762638619
atp407
a(g1
(lp408
F11.680610929756085
aF11.028022363051427
aF8.552088008052891
aF3.191094595363436
aF21.92129918652252
aF8.565594768782987
aF11.199130228449036
aF1.2792970572526767
atp409
a(g1
(lp410
F11.440913312862953
aF10.795740160291256
aF8.351249454068785
aF3.081843237703892
aF20.962860148676256
aF8.048251744534285
aF10.77597551627578
aF1.1666832120330983
atp411
a(g1
(lp412
F11.490826323244322
aF10.837168602291912
aF8.36169616172651
aF3.046369927198999
aF20.89524126042226
aF7.914149209606982
aF10.778141134233362
aF1.1140295801107443
atp413
a(g1
(lp414
F11.596823287532185
aF10.942031938877056
aF8.462060594030568
aF3.1329490258905413
aF21.40244121150708
aF8.292321440956833
aF10.984885202729853
aF1.229345632865013
atp415
a(g1
(lp416
F11.649676481532929
aF10.995235226360625
aF8.514563131395827
aF3.164085480536298
aF21.767890633232973
aF8.439413817224866
aF11.178026181276845
aF1.2575003741981075
atp417
a(g1
(lp418
F11.68667343482246
aF11.034761726358123
aF8.562612594706156
aF3.212412800938592
aF22.048304222620793
aF8.663256546625114
aF11.257850246898002
aF1.309489341434073
atp419
a(g1
(lp420
F11.651959372888749
aF10.99489856418448
aF8.504587770393385
aF3.1453419340624422
aF21.698061992808267
aF8.36615201534398
aF11.163524531101345
aF1.2341172777539715
atp421
a(g1
(lp422
F11.597131300629645
aF10.940985933158174
aF8.454836597359744
aF3.1058494848790867
aF21.39178858975217
aF8.186878650288826
aF11.009745412611204
aF1.1808992717673403
atp423
a(g1
(lp424
F11.643947020895117
aF10.99142306563962
aF8.517397714555022
aF3.1679107250341896
aF21.786861397810796
aF8.460646920130554
aF11.155934332546487
aF1.2491855384707193
atp425
a(g1
(lp426
F11.894147559180638
aF11.224389448802887
aF8.686372481425812
aF3.2160787601920564
aF22.66223034210632
aF8.735770251392479
aF11.665595537017184
aF1.2878308773240779
atp427
a(g1
(lp428
F11.660678047071242
aF11.011414982239911
aF8.547948110388372
aF3.203368054646382
aF21.980126456409316
aF8.619775801118076
aF11.222948429737503
aF1.2944254497331258
atp429
a(g1
(lp430
F11.575722438970615
aF10.925212990302024
aF8.45746539575552
aF3.1223317697771686
aF21.44428625213654
aF8.252718004454028
aF11.001776691877998
aF1.1974439589147952
atp431
a(g1
(lp432
F11.653446395406968
aF10.994430713957122
aF8.496294204867507
aF3.11629612514196
aF21.657812444888894
aF8.249180924707094
aF11.175188358683563
aF1.1846057460136485
atp433
a(g1
(lp434
F8.327207701577374
aF7.849588802521515
aF6.0427463890029465
aF2.1786110604141786
aF12.945457805122158
aF4.249951884364192
aF7.032355882384717
aF0.4864898029708598
atp435
a(g1
(lp436
F8.375565350402386
aF7.896737362010394
aF6.085797228961127
aF2.2152599456799202
aF13.268141056306318
aF4.372556361778427
aF7.202460701263006
aF0.5007594148638812
atp437
a(g1
(lp438
F8.003960581131006
aF7.5440876835725925
aF5.803717153681613
aF2.0836946223442663
aF12.311527570479466
aF3.9563391462493653
aF6.72018671288999
aF0.42303293011878723
atp439
a(g1
(lp440
F7.850790937122515
aF7.398478174770477
aF5.685117438774695
aF2.0149658930583194
aF11.774668251564533
aF3.7409948495049496
aF6.438979076608948
aF0.38570481045544086
atp441
a(g1
(lp442
F8.258875396687962
aF7.789379291574015
aF6.011931827113499
aF2.198897804141113
aF12.81814955188244
aF4.278086246278296
aF6.926420203614344
aF0.5056001496431202
atp443
a(g1
(lp444
F8.088990478589075
aF7.630366203888224
aF5.892912942000536
aF2.1548605150091333
aF12.590206686025127
aF4.145057186724158
aF6.8178186852472615
aF0.46351451929063264
atp445
a(g1
(lp446
F8.163082746379136
aF7.691752680652601
aF5.9080360828340925
aF2.107511043461127
aF12.581686495150517
aF4.0294981257659
aF6.88212690424183
aF0.42983929245306024
atp447
a(g1
(lp448
F7.784519621856251
aF7.332088751884886
aF5.625111604189535
aF2.005138637110478
aF11.630312717091472
aF3.6912551507692677
aF6.364591149903573
aF0.37486425196727163
atp449
a(g1
(lp450
F8.270394184159963
aF7.798705115400709
aF6.011446044992626
aF2.1771744630001995
aF12.833174497072505
aF4.236132197548244
aF6.951898437627013
aF0.4857226709569689
atp451
a(g1
(lp452
F7.9691224314679605
aF7.516242079713082
aF5.800082763107699
aF2.1054681605911414
aF12.128368513258604
aF3.995106634159237
aF6.5766646364843995
aF0.4585723368004206
atp453
a(g1
(lp454
F8.225108384304152
aF7.756271695865694
aF5.98064506191564
aF2.1635215106556647
aF12.734036877679673
aF4.185338236096547
aF6.884249527690717
aF0.46426514528106017
atp455
a(g1
(lp456
F8.157329701817591
aF7.691117686499177
aF5.92476283529091
aF2.1355188798985703
aF12.747105238876236
aF4.107316620749099
aF6.939309995514104
aF0.4326868936887953
atp457
a(g1
(lp458
F7.912546633496172
aF7.453483696639713
aF5.718938495237761
aF2.0307421436128243
aF11.982836635958352
aF3.790206248093183
aF6.569313568437456
aF0.38612157383597434
atp459
a(g1
(lp460
F7.960266718814549
aF7.498348828331749
aF5.752677995636902
aF2.032927752346316
aF11.857761638002316
aF3.7836907051973463
aF6.458879847027131
aF0.38495708649135174
atp461
a(g1
(lp462
F8.132345879197189
aF7.668876368022623
aF5.912440459826029
aF2.13798664456507
aF12.45277770269585
aF4.0974178752913
aF6.749200390655757
aF0.4652787926981676
atp463
a(g1
(lp464
F8.305982799803523
aF7.836098004143299
aF6.057310013140539
aF2.241696893637596
aF13.089577583543504
aF4.428553769613689
aF7.040200687167694
aF0.5344245063109708
atp465
a(g1
(lp466
F7.787556486459679
aF7.338190163419303
aF5.639554311394691
aF2.009807151697447
aF11.846554995124597
aF3.73378334378326
aF6.48669108288951
aF0.37004652762095114
atp467
a(g1
(lp468
F8.116643917812338
aF7.65036452750264
aF5.8855936729507325
aF2.1129558987613812
aF12.375774511966014
aF4.043493335923973
aF6.711974823238735
aF0.446703686365218
atp469
a(g1
(lp470
F7.691013402352339
aF7.243710798801257
aF5.5527892419364235
aF1.9489097843329932
aF11.363685182182397
aF3.548550201189124
aF6.266898557046712
aF0.360304283908953
atp471
a(g1
(lp472
F8.627107221197498
aF8.13434387672242
aF6.267094816455351
aF2.2653212153019497
aF13.628497720497112
aF4.535649801319657
aF7.369531693106197
aF0.5328135791377664
atp473
a(g1
(lp474
F8.31787026075681
aF7.844560593869513
aF6.050409778491985
aF2.1926225340296632
aF13.094903021934323
aF4.309228514756205
aF7.090342226158062
aF0.4819304972983043
atp475
a(g1
(lp476
F8.344532719234552
aF7.867724310769156
aF6.060448916285032
aF2.1847305271643354
aF13.21110565266454
aF4.289837581136276
aF7.195562400959233
aF0.4712383960258531
atp477
a(g1
(lp478
F7.96379868068852
aF7.510971164030503
aF5.796966595869117
aF2.1151740447974188
aF12.1849668964168
aF4.024159610147621
aF6.579358083879314
aF0.44783680683713967
atp479
a(g1
(lp480
F7.916240951213021
aF7.461417856993304
aF5.743016341614707
aF2.0729341285747775
aF11.95479100070757
aF3.888860729911839
aF6.502142822014328
aF0.42963807990004577
atp481
a.